
vcu_timer.elf:     file format elf32-littlearm

Sections:
Idx Name          Size      VMA       LMA       File off  Algn
  0 .text         000045f8  00400000  00400000  00010000  2**3
                  CONTENTS, ALLOC, LOAD, READONLY, CODE
  1 .relocate     0000020c  20400000  004045f8  00020000  2**2
                  CONTENTS, ALLOC, LOAD, DATA
  2 .bss          00000708  2040020c  00404804  0002020c  2**2
                  ALLOC
  3 .heap         00000204  20400914  00404f0c  0002020c  2**0
                  ALLOC
  4 .stack        00000400  20400b18  00405110  0002020c  2**0
                  ALLOC
  5 .ARM.attributes 0000002e  00000000  00000000  0002020c  2**0
                  CONTENTS, READONLY
  6 .comment      00000059  00000000  00000000  0002023a  2**0
                  CONTENTS, READONLY
  7 .debug_frame  00000c2c  00000000  00000000  00020294  2**2
                  CONTENTS, READONLY, DEBUGGING

Disassembly of section .text:

00400000 <exception_table>:
  400000:	18 0f 40 20 e1 01 40 00 dd 01 40 00 dd 01 40 00     ..@ ..@...@...@.
  400010:	dd 01 40 00 dd 01 40 00 dd 01 40 00 00 00 00 00     ..@...@...@.....
	...
  40002c:	dd 01 40 00 dd 01 40 00 00 00 00 00 dd 01 40 00     ..@...@.......@.
  40003c:	dd 01 40 00 dd 01 40 00 dd 01 40 00 dd 01 40 00     ..@...@...@...@.
  40004c:	dd 01 40 00 dd 01 40 00 dd 01 40 00 89 0e 40 00     ..@...@...@...@.
  40005c:	dd 01 40 00 19 15 40 00 00 00 00 00 dd 01 40 00     ..@...@.......@.
  40006c:	dd 01 40 00 dd 01 40 00 dd 01 40 00 dd 01 40 00     ..@...@...@...@.
  40007c:	dd 01 40 00 dd 01 40 00 dd 01 40 00 dd 01 40 00     ..@...@...@...@.
  40008c:	dd 01 40 00 dd 01 40 00 dd 01 40 00 dd 01 40 00     ..@...@...@...@.
  40009c:	f9 12 40 00 dd 01 40 00 dd 01 40 00 dd 01 40 00     ..@...@...@...@.
  4000ac:	dd 01 40 00 dd 01 40 00 21 0d 40 00 dd 01 40 00     ..@...@.!.@...@.
  4000bc:	dd 01 40 00 dd 01 40 00 dd 01 40 00 dd 01 40 00     ..@...@...@...@.
  4000cc:	09 11 40 00 dd 01 40 00 dd 01 40 00 dd 01 40 00     ..@...@...@...@.
  4000dc:	dd 01 40 00 31 0d 40 00 dd 01 40 00 dd 01 40 00     ..@.1.@...@...@.
  4000ec:	dd 01 40 00 29 15 40 00 dd 01 40 00 dd 01 40 00     ..@.).@...@...@.
  4000fc:	dd 01 40 00 dd 01 40 00 dd 01 40 00 dd 01 40 00     ..@...@...@...@.
  40010c:	dd 01 40 00 dd 01 40 00 00 00 00 00 00 00 00 00     ..@...@.........
  40011c:	00 00 00 00 dd 01 40 00 dd 01 40 00 dd 01 40 00     ......@...@...@.
  40012c:	dd 01 40 00 dd 01 40 00 dd 01 40 00 dd 01 40 00     ..@...@...@...@.
  40013c:	dd 01 40 00 dd 01 40 00 dd 01 40 00 dd 01 40 00     ..@...@...@...@.
  40014c:	dd 01 40 00 dd 01 40 00 dd 01 40 00 dd 01 40 00     ..@...@...@...@.
  40015c:	dd 01 40 00 dd 01 40 00 dd 01 40 00                 ..@...@...@.

00400168 <__do_global_dtors_aux>:
  400168:	b510      	push	{r4, lr}
  40016a:	4c05      	ldr	r4, [pc, #20]	; (400180 <__do_global_dtors_aux+0x18>)
  40016c:	7823      	ldrb	r3, [r4, #0]
  40016e:	b933      	cbnz	r3, 40017e <__do_global_dtors_aux+0x16>
  400170:	4b04      	ldr	r3, [pc, #16]	; (400184 <__do_global_dtors_aux+0x1c>)
  400172:	b113      	cbz	r3, 40017a <__do_global_dtors_aux+0x12>
  400174:	4804      	ldr	r0, [pc, #16]	; (400188 <__do_global_dtors_aux+0x20>)
  400176:	f3af 8000 	nop.w
  40017a:	2301      	movs	r3, #1
  40017c:	7023      	strb	r3, [r4, #0]
  40017e:	bd10      	pop	{r4, pc}
  400180:	2040020c 	.word	0x2040020c
  400184:	00000000 	.word	0x00000000
  400188:	004045f8 	.word	0x004045f8

0040018c <frame_dummy>:
  40018c:	4b0c      	ldr	r3, [pc, #48]	; (4001c0 <frame_dummy+0x34>)
  40018e:	b143      	cbz	r3, 4001a2 <frame_dummy+0x16>
  400190:	480c      	ldr	r0, [pc, #48]	; (4001c4 <frame_dummy+0x38>)
  400192:	490d      	ldr	r1, [pc, #52]	; (4001c8 <frame_dummy+0x3c>)
  400194:	b510      	push	{r4, lr}
  400196:	f3af 8000 	nop.w
  40019a:	480c      	ldr	r0, [pc, #48]	; (4001cc <frame_dummy+0x40>)
  40019c:	6803      	ldr	r3, [r0, #0]
  40019e:	b923      	cbnz	r3, 4001aa <frame_dummy+0x1e>
  4001a0:	bd10      	pop	{r4, pc}
  4001a2:	480a      	ldr	r0, [pc, #40]	; (4001cc <frame_dummy+0x40>)
  4001a4:	6803      	ldr	r3, [r0, #0]
  4001a6:	b933      	cbnz	r3, 4001b6 <frame_dummy+0x2a>
  4001a8:	4770      	bx	lr
  4001aa:	4b09      	ldr	r3, [pc, #36]	; (4001d0 <frame_dummy+0x44>)
  4001ac:	2b00      	cmp	r3, #0
  4001ae:	d0f7      	beq.n	4001a0 <frame_dummy+0x14>
  4001b0:	e8bd 4010 	ldmia.w	sp!, {r4, lr}
  4001b4:	4718      	bx	r3
  4001b6:	4b06      	ldr	r3, [pc, #24]	; (4001d0 <frame_dummy+0x44>)
  4001b8:	2b00      	cmp	r3, #0
  4001ba:	d0f5      	beq.n	4001a8 <frame_dummy+0x1c>
  4001bc:	4718      	bx	r3
  4001be:	bf00      	nop
  4001c0:	00000000 	.word	0x00000000
  4001c4:	004045f8 	.word	0x004045f8
  4001c8:	20400210 	.word	0x20400210
  4001cc:	004045f8 	.word	0x004045f8
  4001d0:	00000000 	.word	0x00000000

004001d4 <atmel_start_init>:
  4001d4:	4b00      	ldr	r3, [pc, #0]	; (4001d8 <atmel_start_init+0x4>)
  4001d6:	4718      	bx	r3
  4001d8:	0040041d 	.word	0x0040041d

004001dc <Dummy_Handler>:
  4001dc:	e7fe      	b.n	4001dc <Dummy_Handler>
	...

004001e0 <Reset_Handler>:
  4001e0:	b508      	push	{r3, lr}
  4001e2:	4a0f      	ldr	r2, [pc, #60]	; (400220 <Reset_Handler+0x40>)
  4001e4:	4b0f      	ldr	r3, [pc, #60]	; (400224 <Reset_Handler+0x44>)
  4001e6:	429a      	cmp	r2, r3
  4001e8:	d10e      	bne.n	400208 <Reset_Handler+0x28>
  4001ea:	4b0f      	ldr	r3, [pc, #60]	; (400228 <Reset_Handler+0x48>)
  4001ec:	2100      	movs	r1, #0
  4001ee:	4a0f      	ldr	r2, [pc, #60]	; (40022c <Reset_Handler+0x4c>)
  4001f0:	4293      	cmp	r3, r2
  4001f2:	d312      	bcc.n	40021a <Reset_Handler+0x3a>
  4001f4:	4b0e      	ldr	r3, [pc, #56]	; (400230 <Reset_Handler+0x50>)
  4001f6:	4a0f      	ldr	r2, [pc, #60]	; (400234 <Reset_Handler+0x54>)
  4001f8:	f023 037f 	bic.w	r3, r3, #127	; 0x7f
  4001fc:	6093      	str	r3, [r2, #8]
  4001fe:	4b0e      	ldr	r3, [pc, #56]	; (400238 <Reset_Handler+0x58>)
  400200:	4798      	blx	r3
  400202:	4b0e      	ldr	r3, [pc, #56]	; (40023c <Reset_Handler+0x5c>)
  400204:	4798      	blx	r3
  400206:	e7fe      	b.n	400206 <Reset_Handler+0x26>
  400208:	3a04      	subs	r2, #4
  40020a:	490d      	ldr	r1, [pc, #52]	; (400240 <Reset_Handler+0x60>)
  40020c:	428b      	cmp	r3, r1
  40020e:	d2ec      	bcs.n	4001ea <Reset_Handler+0xa>
  400210:	f852 0f04 	ldr.w	r0, [r2, #4]!
  400214:	f843 0b04 	str.w	r0, [r3], #4
  400218:	e7f8      	b.n	40020c <Reset_Handler+0x2c>
  40021a:	f843 1b04 	str.w	r1, [r3], #4
  40021e:	e7e7      	b.n	4001f0 <Reset_Handler+0x10>
  400220:	004045f8 	.word	0x004045f8
  400224:	20400000 	.word	0x20400000
  400228:	2040020c 	.word	0x2040020c
  40022c:	20400914 	.word	0x20400914
  400230:	00400000 	.word	0x00400000
  400234:	e000ed00 	.word	0xe000ed00
  400238:	004018f5 	.word	0x004018f5
  40023c:	00401791 	.word	0x00401791
  400240:	2040020c 	.word	0x2040020c

00400244 <_gpio_set_pin_function>:
  400244:	f000 021f 	and.w	r2, r0, #31
  400248:	f3c0 1047 	ubfx	r0, r0, #5, #8
  40024c:	b5f0      	push	{r4, r5, r6, r7, lr}
  40024e:	2801      	cmp	r0, #1
  400250:	ea4f 2540 	mov.w	r5, r0, lsl #9
  400254:	4c19      	ldr	r4, [pc, #100]	; (4002bc <_gpio_set_pin_function+0x78>)
  400256:	eb05 0304 	add.w	r3, r5, r4
  40025a:	d10c      	bne.n	400276 <_gpio_set_pin_function+0x32>
  40025c:	1f10      	subs	r0, r2, #4
  40025e:	2803      	cmp	r0, #3
  400260:	d901      	bls.n	400266 <_gpio_set_pin_function+0x22>
  400262:	2a0c      	cmp	r2, #12
  400264:	d107      	bne.n	400276 <_gpio_set_pin_function+0x32>
  400266:	4e16      	ldr	r6, [pc, #88]	; (4002c0 <_gpio_set_pin_function+0x7c>)
  400268:	2001      	movs	r0, #1
  40026a:	f8d6 7114 	ldr.w	r7, [r6, #276]	; 0x114
  40026e:	4090      	lsls	r0, r2
  400270:	4338      	orrs	r0, r7
  400272:	f8c6 0114 	str.w	r0, [r6, #276]	; 0x114
  400276:	1c48      	adds	r0, r1, #1
  400278:	d104      	bne.n	400284 <_gpio_set_pin_function+0x40>
  40027a:	2301      	movs	r3, #1
  40027c:	fa03 f202 	lsl.w	r2, r3, r2
  400280:	512a      	str	r2, [r5, r4]
  400282:	bdf0      	pop	{r4, r5, r6, r7, pc}
  400284:	2001      	movs	r0, #1
  400286:	6f1c      	ldr	r4, [r3, #112]	; 0x70
  400288:	f011 0f01 	tst.w	r1, #1
  40028c:	fa00 f002 	lsl.w	r0, r0, r2
  400290:	bf14      	ite	ne
  400292:	4320      	orrne	r0, r4
  400294:	ea24 0000 	biceq.w	r0, r4, r0
  400298:	f011 0f02 	tst.w	r1, #2
  40029c:	f04f 0101 	mov.w	r1, #1
  4002a0:	6718      	str	r0, [r3, #112]	; 0x70
  4002a2:	fa01 f102 	lsl.w	r1, r1, r2
  4002a6:	6f58      	ldr	r0, [r3, #116]	; 0x74
  4002a8:	bf14      	ite	ne
  4002aa:	4301      	orrne	r1, r0
  4002ac:	ea20 0101 	biceq.w	r1, r0, r1
  4002b0:	6759      	str	r1, [r3, #116]	; 0x74
  4002b2:	2101      	movs	r1, #1
  4002b4:	fa01 f202 	lsl.w	r2, r1, r2
  4002b8:	605a      	str	r2, [r3, #4]
  4002ba:	bdf0      	pop	{r4, r5, r6, r7, pc}
  4002bc:	400e0e00 	.word	0x400e0e00
  4002c0:	40088000 	.word	0x40088000

004002c4 <FLASH_0_init>:
  4002c4:	4901      	ldr	r1, [pc, #4]	; (4002cc <FLASH_0_init+0x8>)
  4002c6:	4802      	ldr	r0, [pc, #8]	; (4002d0 <FLASH_0_init+0xc>)
  4002c8:	4b02      	ldr	r3, [pc, #8]	; (4002d4 <FLASH_0_init+0x10>)
  4002ca:	4718      	bx	r3
  4002cc:	400e0c00 	.word	0x400e0c00
  4002d0:	2040048c 	.word	0x2040048c
  4002d4:	00400811 	.word	0x00400811

004002d8 <UART_MC_1_CLOCK_init>:
  4002d8:	4b03      	ldr	r3, [pc, #12]	; (4002e8 <UART_MC_1_CLOCK_init+0x10>)
  4002da:	699a      	ldr	r2, [r3, #24]
  4002dc:	05d2      	lsls	r2, r2, #23
  4002de:	d402      	bmi.n	4002e6 <UART_MC_1_CLOCK_init+0xe>
  4002e0:	f44f 7280 	mov.w	r2, #256	; 0x100
  4002e4:	611a      	str	r2, [r3, #16]
  4002e6:	4770      	bx	lr
  4002e8:	400e0600 	.word	0x400e0600

004002ec <UART_MC_1_PORT_init>:
  4002ec:	b510      	push	{r4, lr}
  4002ee:	4c05      	ldr	r4, [pc, #20]	; (400304 <UART_MC_1_PORT_init+0x18>)
  4002f0:	2102      	movs	r1, #2
  4002f2:	2005      	movs	r0, #5
  4002f4:	47a0      	blx	r4
  4002f6:	4623      	mov	r3, r4
  4002f8:	2102      	movs	r1, #2
  4002fa:	2006      	movs	r0, #6
  4002fc:	e8bd 4010 	ldmia.w	sp!, {r4, lr}
  400300:	4718      	bx	r3
  400302:	bf00      	nop
  400304:	00400245 	.word	0x00400245

00400308 <UART_MC_1_init>:
  400308:	b513      	push	{r0, r1, r4, lr}
  40030a:	4b08      	ldr	r3, [pc, #32]	; (40032c <UART_MC_1_init+0x24>)
  40030c:	4798      	blx	r3
  40030e:	4b08      	ldr	r3, [pc, #32]	; (400330 <UART_MC_1_init+0x28>)
  400310:	4798      	blx	r3
  400312:	4c08      	ldr	r4, [pc, #32]	; (400334 <UART_MC_1_init+0x2c>)
  400314:	9000      	str	r0, [sp, #0]
  400316:	2310      	movs	r3, #16
  400318:	4a07      	ldr	r2, [pc, #28]	; (400338 <UART_MC_1_init+0x30>)
  40031a:	4908      	ldr	r1, [pc, #32]	; (40033c <UART_MC_1_init+0x34>)
  40031c:	4808      	ldr	r0, [pc, #32]	; (400340 <UART_MC_1_init+0x38>)
  40031e:	47a0      	blx	r4
  400320:	4b08      	ldr	r3, [pc, #32]	; (400344 <UART_MC_1_init+0x3c>)
  400322:	b002      	add	sp, #8
  400324:	e8bd 4010 	ldmia.w	sp!, {r4, lr}
  400328:	4718      	bx	r3
  40032a:	bf00      	nop
  40032c:	004002d9 	.word	0x004002d9
  400330:	00401513 	.word	0x00401513
  400334:	00400aa9 	.word	0x00400aa9
  400338:	20400228 	.word	0x20400228
  40033c:	400e0a00 	.word	0x400e0a00
  400340:	204004a8 	.word	0x204004a8
  400344:	004002ed 	.word	0x004002ed

00400348 <UART_MC_2_CLOCK_init>:
  400348:	4b04      	ldr	r3, [pc, #16]	; (40035c <UART_MC_2_CLOCK_init+0x14>)
  40034a:	f8d3 2108 	ldr.w	r2, [r3, #264]	; 0x108
  40034e:	04d2      	lsls	r2, r2, #19
  400350:	d403      	bmi.n	40035a <UART_MC_2_CLOCK_init+0x12>
  400352:	f44f 5280 	mov.w	r2, #4096	; 0x1000
  400356:	f8c3 2100 	str.w	r2, [r3, #256]	; 0x100
  40035a:	4770      	bx	lr
  40035c:	400e0600 	.word	0x400e0600

00400360 <UART_MC_2_PORT_init>:
  400360:	b510      	push	{r4, lr}
  400362:	4c05      	ldr	r4, [pc, #20]	; (400378 <UART_MC_2_PORT_init+0x18>)
  400364:	2102      	movs	r1, #2
  400366:	2079      	movs	r0, #121	; 0x79
  400368:	47a0      	blx	r4
  40036a:	4623      	mov	r3, r4
  40036c:	2102      	movs	r1, #2
  40036e:	207a      	movs	r0, #122	; 0x7a
  400370:	e8bd 4010 	ldmia.w	sp!, {r4, lr}
  400374:	4718      	bx	r3
  400376:	bf00      	nop
  400378:	00400245 	.word	0x00400245

0040037c <UART_MC_2_init>:
  40037c:	b513      	push	{r0, r1, r4, lr}
  40037e:	4b08      	ldr	r3, [pc, #32]	; (4003a0 <UART_MC_2_init+0x24>)
  400380:	4798      	blx	r3
  400382:	4b08      	ldr	r3, [pc, #32]	; (4003a4 <UART_MC_2_init+0x28>)
  400384:	4798      	blx	r3
  400386:	4c08      	ldr	r4, [pc, #32]	; (4003a8 <UART_MC_2_init+0x2c>)
  400388:	9000      	str	r0, [sp, #0]
  40038a:	2310      	movs	r3, #16
  40038c:	4a07      	ldr	r2, [pc, #28]	; (4003ac <UART_MC_2_init+0x30>)
  40038e:	4908      	ldr	r1, [pc, #32]	; (4003b0 <UART_MC_2_init+0x34>)
  400390:	4808      	ldr	r0, [pc, #32]	; (4003b4 <UART_MC_2_init+0x38>)
  400392:	47a0      	blx	r4
  400394:	4b08      	ldr	r3, [pc, #32]	; (4003b8 <UART_MC_2_init+0x3c>)
  400396:	b002      	add	sp, #8
  400398:	e8bd 4010 	ldmia.w	sp!, {r4, lr}
  40039c:	4718      	bx	r3
  40039e:	bf00      	nop
  4003a0:	00400349 	.word	0x00400349
  4003a4:	00401513 	.word	0x00401513
  4003a8:	00400aa9 	.word	0x00400aa9
  4003ac:	20400238 	.word	0x20400238
  4003b0:	400e1a00 	.word	0x400e1a00
  4003b4:	204005e4 	.word	0x204005e4
  4003b8:	00400361 	.word	0x00400361

004003bc <CAN_0_CLOCK_init>:
  4003bc:	4b04      	ldr	r3, [pc, #16]	; (4003d0 <CAN_0_CLOCK_init+0x14>)
  4003be:	f8d3 2108 	ldr.w	r2, [r3, #264]	; 0x108
  4003c2:	0712      	lsls	r2, r2, #28
  4003c4:	d402      	bmi.n	4003cc <CAN_0_CLOCK_init+0x10>
  4003c6:	2208      	movs	r2, #8
  4003c8:	f8c3 2100 	str.w	r2, [r3, #256]	; 0x100
  4003cc:	4770      	bx	lr
  4003ce:	bf00      	nop
  4003d0:	400e0600 	.word	0x400e0600

004003d4 <CAN_0_PORT_init>:
  4003d4:	b510      	push	{r4, lr}
  4003d6:	4c05      	ldr	r4, [pc, #20]	; (4003ec <CAN_0_PORT_init+0x18>)
  4003d8:	2100      	movs	r1, #0
  4003da:	2023      	movs	r0, #35	; 0x23
  4003dc:	47a0      	blx	r4
  4003de:	4623      	mov	r3, r4
  4003e0:	2100      	movs	r1, #0
  4003e2:	2022      	movs	r0, #34	; 0x22
  4003e4:	e8bd 4010 	ldmia.w	sp!, {r4, lr}
  4003e8:	4718      	bx	r3
  4003ea:	bf00      	nop
  4003ec:	00400245 	.word	0x00400245

004003f0 <CAN_0_init>:
  4003f0:	b510      	push	{r4, lr}
  4003f2:	4b05      	ldr	r3, [pc, #20]	; (400408 <CAN_0_init+0x18>)
  4003f4:	4798      	blx	r3
  4003f6:	4b05      	ldr	r3, [pc, #20]	; (40040c <CAN_0_init+0x1c>)
  4003f8:	4798      	blx	r3
  4003fa:	4905      	ldr	r1, [pc, #20]	; (400410 <CAN_0_init+0x20>)
  4003fc:	4805      	ldr	r0, [pc, #20]	; (400414 <CAN_0_init+0x24>)
  4003fe:	4b06      	ldr	r3, [pc, #24]	; (400418 <CAN_0_init+0x28>)
  400400:	e8bd 4010 	ldmia.w	sp!, {r4, lr}
  400404:	4718      	bx	r3
  400406:	bf00      	nop
  400408:	004003bd 	.word	0x004003bd
  40040c:	004003d5 	.word	0x004003d5
  400410:	40030000 	.word	0x40030000
  400414:	20400464 	.word	0x20400464
  400418:	00400765 	.word	0x00400765

0040041c <system_init>:
  40041c:	e92d 41ff 	stmdb	sp!, {r0, r1, r2, r3, r4, r5, r6, r7, r8, lr}
  400420:	4c57      	ldr	r4, [pc, #348]	; (400580 <system_init+0x164>)
  400422:	4b58      	ldr	r3, [pc, #352]	; (400584 <system_init+0x168>)
  400424:	4798      	blx	r3
  400426:	69a3      	ldr	r3, [r4, #24]
  400428:	04dd      	lsls	r5, r3, #19
  40042a:	d402      	bmi.n	400432 <system_init+0x16>
  40042c:	f44f 5380 	mov.w	r3, #4096	; 0x1000
  400430:	6123      	str	r3, [r4, #16]
  400432:	69a3      	ldr	r3, [r4, #24]
  400434:	03d8      	lsls	r0, r3, #15
  400436:	d402      	bmi.n	40043e <system_init+0x22>
  400438:	f44f 3380 	mov.w	r3, #65536	; 0x10000
  40043c:	6123      	str	r3, [r4, #16]
  40043e:	4a52      	ldr	r2, [pc, #328]	; (400588 <system_init+0x16c>)
  400440:	f04f 31ff 	mov.w	r1, #4294967295
  400444:	2053      	movs	r0, #83	; 0x53
  400446:	4d51      	ldr	r5, [pc, #324]	; (40058c <system_init+0x170>)
  400448:	6853      	ldr	r3, [r2, #4]
  40044a:	f443 4300 	orr.w	r3, r3, #32768	; 0x8000
  40044e:	6053      	str	r3, [r2, #4]
  400450:	f44f 2200 	mov.w	r2, #524288	; 0x80000
  400454:	4b4e      	ldr	r3, [pc, #312]	; (400590 <system_init+0x174>)
  400456:	635a      	str	r2, [r3, #52]	; 0x34
  400458:	611a      	str	r2, [r3, #16]
  40045a:	47a8      	blx	r5
  40045c:	4b4d      	ldr	r3, [pc, #308]	; (400594 <system_init+0x178>)
  40045e:	f44f 1280 	mov.w	r2, #1048576	; 0x100000
  400462:	f04f 31ff 	mov.w	r1, #4294967295
  400466:	2074      	movs	r0, #116	; 0x74
  400468:	615a      	str	r2, [r3, #20]
  40046a:	f8c3 2090 	str.w	r2, [r3, #144]	; 0x90
  40046e:	665a      	str	r2, [r3, #100]	; 0x64
  400470:	47a8      	blx	r5
  400472:	69a3      	ldr	r3, [r4, #24]
  400474:	0099      	lsls	r1, r3, #2
  400476:	d402      	bmi.n	40047e <system_init+0x62>
  400478:	f04f 5300 	mov.w	r3, #536870912	; 0x20000000
  40047c:	6123      	str	r3, [r4, #16]
  40047e:	4b46      	ldr	r3, [pc, #280]	; (400598 <system_init+0x17c>)
  400480:	2700      	movs	r7, #0
  400482:	4a46      	ldr	r2, [pc, #280]	; (40059c <system_init+0x180>)
  400484:	9301      	str	r3, [sp, #4]
  400486:	2303      	movs	r3, #3
  400488:	4945      	ldr	r1, [pc, #276]	; (4005a0 <system_init+0x184>)
  40048a:	9300      	str	r3, [sp, #0]
  40048c:	230a      	movs	r3, #10
  40048e:	9702      	str	r7, [sp, #8]
  400490:	4844      	ldr	r0, [pc, #272]	; (4005a4 <system_init+0x188>)
  400492:	f8df 8168 	ldr.w	r8, [pc, #360]	; 4005fc <system_init+0x1e0>
  400496:	47c0      	blx	r8
  400498:	4e43      	ldr	r6, [pc, #268]	; (4005a8 <system_init+0x18c>)
  40049a:	2310      	movs	r3, #16
  40049c:	4a43      	ldr	r2, [pc, #268]	; (4005ac <system_init+0x190>)
  40049e:	4639      	mov	r1, r7
  4004a0:	4840      	ldr	r0, [pc, #256]	; (4005a4 <system_init+0x188>)
  4004a2:	47b0      	blx	r6
  4004a4:	2310      	movs	r3, #16
  4004a6:	4a42      	ldr	r2, [pc, #264]	; (4005b0 <system_init+0x194>)
  4004a8:	2108      	movs	r1, #8
  4004aa:	483e      	ldr	r0, [pc, #248]	; (4005a4 <system_init+0x188>)
  4004ac:	47b0      	blx	r6
  4004ae:	2310      	movs	r3, #16
  4004b0:	4a40      	ldr	r2, [pc, #256]	; (4005b4 <system_init+0x198>)
  4004b2:	210a      	movs	r1, #10
  4004b4:	483b      	ldr	r0, [pc, #236]	; (4005a4 <system_init+0x188>)
  4004b6:	47b0      	blx	r6
  4004b8:	f04f 31ff 	mov.w	r1, #4294967295
  4004bc:	207e      	movs	r0, #126	; 0x7e
  4004be:	47a8      	blx	r5
  4004c0:	f04f 31ff 	mov.w	r1, #4294967295
  4004c4:	2013      	movs	r0, #19
  4004c6:	47a8      	blx	r5
  4004c8:	f04f 31ff 	mov.w	r1, #4294967295
  4004cc:	2020      	movs	r0, #32
  4004ce:	47a8      	blx	r5
  4004d0:	f8d4 3108 	ldr.w	r3, [r4, #264]	; 0x108
  4004d4:	05da      	lsls	r2, r3, #23
  4004d6:	d403      	bmi.n	4004e0 <system_init+0xc4>
  4004d8:	f44f 7380 	mov.w	r3, #256	; 0x100
  4004dc:	f8c4 3100 	str.w	r3, [r4, #256]	; 0x100
  4004e0:	9702      	str	r7, [sp, #8]
  4004e2:	2705      	movs	r7, #5
  4004e4:	4b34      	ldr	r3, [pc, #208]	; (4005b8 <system_init+0x19c>)
  4004e6:	4a35      	ldr	r2, [pc, #212]	; (4005bc <system_init+0x1a0>)
  4004e8:	9301      	str	r3, [sp, #4]
  4004ea:	2306      	movs	r3, #6
  4004ec:	4934      	ldr	r1, [pc, #208]	; (4005c0 <system_init+0x1a4>)
  4004ee:	9700      	str	r7, [sp, #0]
  4004f0:	4834      	ldr	r0, [pc, #208]	; (4005c4 <system_init+0x1a8>)
  4004f2:	47c0      	blx	r8
  4004f4:	2310      	movs	r3, #16
  4004f6:	4a34      	ldr	r2, [pc, #208]	; (4005c8 <system_init+0x1ac>)
  4004f8:	2100      	movs	r1, #0
  4004fa:	4832      	ldr	r0, [pc, #200]	; (4005c4 <system_init+0x1a8>)
  4004fc:	47b0      	blx	r6
  4004fe:	2310      	movs	r3, #16
  400500:	4a32      	ldr	r2, [pc, #200]	; (4005cc <system_init+0x1b0>)
  400502:	2101      	movs	r1, #1
  400504:	482f      	ldr	r0, [pc, #188]	; (4005c4 <system_init+0x1a8>)
  400506:	47b0      	blx	r6
  400508:	2310      	movs	r3, #16
  40050a:	4a31      	ldr	r2, [pc, #196]	; (4005d0 <system_init+0x1b4>)
  40050c:	2103      	movs	r1, #3
  40050e:	482d      	ldr	r0, [pc, #180]	; (4005c4 <system_init+0x1a8>)
  400510:	47b0      	blx	r6
  400512:	2310      	movs	r3, #16
  400514:	4a2f      	ldr	r2, [pc, #188]	; (4005d4 <system_init+0x1b8>)
  400516:	4639      	mov	r1, r7
  400518:	482a      	ldr	r0, [pc, #168]	; (4005c4 <system_init+0x1a8>)
  40051a:	47b0      	blx	r6
  40051c:	2310      	movs	r3, #16
  40051e:	4a2e      	ldr	r2, [pc, #184]	; (4005d8 <system_init+0x1bc>)
  400520:	2106      	movs	r1, #6
  400522:	4828      	ldr	r0, [pc, #160]	; (4005c4 <system_init+0x1a8>)
  400524:	47b0      	blx	r6
  400526:	f04f 31ff 	mov.w	r1, #4294967295
  40052a:	2021      	movs	r0, #33	; 0x21
  40052c:	47a8      	blx	r5
  40052e:	f04f 31ff 	mov.w	r1, #4294967295
  400532:	204d      	movs	r0, #77	; 0x4d
  400534:	47a8      	blx	r5
  400536:	f04f 31ff 	mov.w	r1, #4294967295
  40053a:	204c      	movs	r0, #76	; 0x4c
  40053c:	47a8      	blx	r5
  40053e:	f04f 31ff 	mov.w	r1, #4294967295
  400542:	205e      	movs	r0, #94	; 0x5e
  400544:	47a8      	blx	r5
  400546:	f04f 31ff 	mov.w	r1, #4294967295
  40054a:	205f      	movs	r0, #95	; 0x5f
  40054c:	47a8      	blx	r5
  40054e:	4b23      	ldr	r3, [pc, #140]	; (4005dc <system_init+0x1c0>)
  400550:	4798      	blx	r3
  400552:	69a3      	ldr	r3, [r4, #24]
  400554:	021b      	lsls	r3, r3, #8
  400556:	d402      	bmi.n	40055e <system_init+0x142>
  400558:	f44f 0300 	mov.w	r3, #8388608	; 0x800000
  40055c:	6123      	str	r3, [r4, #16]
  40055e:	4b20      	ldr	r3, [pc, #128]	; (4005e0 <system_init+0x1c4>)
  400560:	4798      	blx	r3
  400562:	4920      	ldr	r1, [pc, #128]	; (4005e4 <system_init+0x1c8>)
  400564:	4602      	mov	r2, r0
  400566:	4b20      	ldr	r3, [pc, #128]	; (4005e8 <system_init+0x1cc>)
  400568:	4820      	ldr	r0, [pc, #128]	; (4005ec <system_init+0x1d0>)
  40056a:	4798      	blx	r3
  40056c:	4b20      	ldr	r3, [pc, #128]	; (4005f0 <system_init+0x1d4>)
  40056e:	4798      	blx	r3
  400570:	4b20      	ldr	r3, [pc, #128]	; (4005f4 <system_init+0x1d8>)
  400572:	4798      	blx	r3
  400574:	4b20      	ldr	r3, [pc, #128]	; (4005f8 <system_init+0x1dc>)
  400576:	b004      	add	sp, #16
  400578:	e8bd 41f0 	ldmia.w	sp!, {r4, r5, r6, r7, r8, lr}
  40057c:	4718      	bx	r3
  40057e:	bf00      	nop
  400580:	400e0600 	.word	0x400e0600
  400584:	00400e11 	.word	0x00400e11
  400588:	400e1850 	.word	0x400e1850
  40058c:	00400245 	.word	0x00400245
  400590:	400e1200 	.word	0x400e1200
  400594:	400e1400 	.word	0x400e1400
  400598:	2040059c 	.word	0x2040059c
  40059c:	20400248 	.word	0x20400248
  4005a0:	4003c000 	.word	0x4003c000
  4005a4:	20400570 	.word	0x20400570
  4005a8:	004006c5 	.word	0x004006c5
  4005ac:	20400253 	.word	0x20400253
  4005b0:	20400263 	.word	0x20400263
  4005b4:	20400273 	.word	0x20400273
  4005b8:	204004f8 	.word	0x204004f8
  4005bc:	20400283 	.word	0x20400283
  4005c0:	40064000 	.word	0x40064000
  4005c4:	20400634 	.word	0x20400634
  4005c8:	2040028a 	.word	0x2040028a
  4005cc:	2040029a 	.word	0x2040029a
  4005d0:	204002aa 	.word	0x204002aa
  4005d4:	204002ba 	.word	0x204002ba
  4005d8:	204002ca 	.word	0x204002ca
  4005dc:	004002c5 	.word	0x004002c5
  4005e0:	004012f5 	.word	0x004012f5
  4005e4:	4000c000 	.word	0x4000c000
  4005e8:	004008f1 	.word	0x004008f1
  4005ec:	20400660 	.word	0x20400660
  4005f0:	00400309 	.word	0x00400309
  4005f4:	0040037d 	.word	0x0040037d
  4005f8:	004003f1 	.word	0x004003f1
  4005fc:	00400679 	.word	0x00400679

00400600 <adc_async_window_threshold_reached>:
  400600:	6983      	ldr	r3, [r0, #24]
  400602:	b103      	cbz	r3, 400606 <adc_async_window_threshold_reached+0x6>
  400604:	4718      	bx	r3
  400606:	4770      	bx	lr

00400608 <adc_async_error_occured>:
  400608:	69c3      	ldr	r3, [r0, #28]
  40060a:	b103      	cbz	r3, 40060e <adc_async_error_occured+0x6>
  40060c:	4718      	bx	r3
  40060e:	4770      	bx	lr

00400610 <adc_async_channel_conversion_done>:
  400610:	6a03      	ldr	r3, [r0, #32]
  400612:	e92d 4ff1 	stmdb	sp!, {r0, r4, r5, r6, r7, r8, r9, sl, fp, lr}
  400616:	5c5c      	ldrb	r4, [r3, r1]
  400618:	4606      	mov	r6, r0
  40061a:	f8d0 8028 	ldr.w	r8, [r0, #40]	; 0x28
  40061e:	460f      	mov	r7, r1
  400620:	eb04 0444 	add.w	r4, r4, r4, lsl #1
  400624:	f8df 904c 	ldr.w	r9, [pc, #76]	; 400674 <adc_async_channel_conversion_done+0x64>
  400628:	b2d1      	uxtb	r1, r2
  40062a:	4693      	mov	fp, r2
  40062c:	00e4      	lsls	r4, r4, #3
  40062e:	eb08 0504 	add.w	r5, r8, r4
  400632:	f105 0a04 	add.w	sl, r5, #4
  400636:	4650      	mov	r0, sl
  400638:	47c8      	blx	r9
  40063a:	4630      	mov	r0, r6
  40063c:	4b0c      	ldr	r3, [pc, #48]	; (400670 <adc_async_channel_conversion_done+0x60>)
  40063e:	4798      	blx	r3
  400640:	2801      	cmp	r0, #1
  400642:	d906      	bls.n	400652 <adc_async_channel_conversion_done+0x42>
  400644:	ea4f 211b 	mov.w	r1, fp, lsr #8
  400648:	4650      	mov	r0, sl
  40064a:	47c8      	blx	r9
  40064c:	8aab      	ldrh	r3, [r5, #20]
  40064e:	3301      	adds	r3, #1
  400650:	82ab      	strh	r3, [r5, #20]
  400652:	8aab      	ldrh	r3, [r5, #20]
  400654:	3301      	adds	r3, #1
  400656:	82ab      	strh	r3, [r5, #20]
  400658:	f858 3004 	ldr.w	r3, [r8, r4]
  40065c:	b12b      	cbz	r3, 40066a <adc_async_channel_conversion_done+0x5a>
  40065e:	4639      	mov	r1, r7
  400660:	4630      	mov	r0, r6
  400662:	b001      	add	sp, #4
  400664:	e8bd 4ff0 	ldmia.w	sp!, {r4, r5, r6, r7, r8, r9, sl, fp, lr}
  400668:	4718      	bx	r3
  40066a:	b001      	add	sp, #4
  40066c:	e8bd 8ff0 	ldmia.w	sp!, {r4, r5, r6, r7, r8, r9, sl, fp, pc}
  400670:	00400dd9 	.word	0x00400dd9
  400674:	00400bc5 	.word	0x00400bc5

00400678 <adc_async_init>:
  400678:	b570      	push	{r4, r5, r6, lr}
  40067a:	4604      	mov	r4, r0
  40067c:	26ff      	movs	r6, #255	; 0xff
  40067e:	2000      	movs	r0, #0
  400680:	b2c5      	uxtb	r5, r0
  400682:	3001      	adds	r0, #1
  400684:	5556      	strb	r6, [r2, r5]
  400686:	b2c5      	uxtb	r5, r0
  400688:	42ab      	cmp	r3, r5
  40068a:	d2f9      	bcs.n	400680 <adc_async_init+0x8>
  40068c:	f884 3024 	strb.w	r3, [r4, #36]	; 0x24
  400690:	4620      	mov	r0, r4
  400692:	f89d 3010 	ldrb.w	r3, [sp, #16]
  400696:	6222      	str	r2, [r4, #32]
  400698:	f884 3025 	strb.w	r3, [r4, #37]	; 0x25
  40069c:	9b05      	ldr	r3, [sp, #20]
  40069e:	62a3      	str	r3, [r4, #40]	; 0x28
  4006a0:	4b04      	ldr	r3, [pc, #16]	; (4006b4 <adc_async_init+0x3c>)
  4006a2:	4798      	blx	r3
  4006a4:	b928      	cbnz	r0, 4006b2 <adc_async_init+0x3a>
  4006a6:	4b04      	ldr	r3, [pc, #16]	; (4006b8 <adc_async_init+0x40>)
  4006a8:	60a3      	str	r3, [r4, #8]
  4006aa:	4b04      	ldr	r3, [pc, #16]	; (4006bc <adc_async_init+0x44>)
  4006ac:	6023      	str	r3, [r4, #0]
  4006ae:	4b04      	ldr	r3, [pc, #16]	; (4006c0 <adc_async_init+0x48>)
  4006b0:	6063      	str	r3, [r4, #4]
  4006b2:	bd70      	pop	{r4, r5, r6, pc}
  4006b4:	00400d41 	.word	0x00400d41
  4006b8:	00400611 	.word	0x00400611
  4006bc:	00400601 	.word	0x00400601
  4006c0:	00400609 	.word	0x00400609

004006c4 <adc_async_register_channel_buffer>:
  4006c4:	b5f8      	push	{r3, r4, r5, r6, r7, lr}
  4006c6:	460f      	mov	r7, r1
  4006c8:	f8d0 e020 	ldr.w	lr, [r0, #32]
  4006cc:	4611      	mov	r1, r2
  4006ce:	4605      	mov	r5, r0
  4006d0:	f81e 2007 	ldrb.w	r2, [lr, r7]
  4006d4:	2aff      	cmp	r2, #255	; 0xff
  4006d6:	d11a      	bne.n	40070e <adc_async_register_channel_buffer+0x4a>
  4006d8:	f890 2024 	ldrb.w	r2, [r0, #36]	; 0x24
  4006dc:	2000      	movs	r0, #0
  4006de:	4604      	mov	r4, r0
  4006e0:	b2c6      	uxtb	r6, r0
  4006e2:	4296      	cmp	r6, r2
  4006e4:	d916      	bls.n	400714 <adc_async_register_channel_buffer+0x50>
  4006e6:	f895 2025 	ldrb.w	r2, [r5, #37]	; 0x25
  4006ea:	42a2      	cmp	r2, r4
  4006ec:	d31a      	bcc.n	400724 <adc_async_register_channel_buffer+0x60>
  4006ee:	eb04 0644 	add.w	r6, r4, r4, lsl #1
  4006f2:	6aa8      	ldr	r0, [r5, #40]	; 0x28
  4006f4:	461a      	mov	r2, r3
  4006f6:	4b0d      	ldr	r3, [pc, #52]	; (40072c <adc_async_register_channel_buffer+0x68>)
  4006f8:	00f6      	lsls	r6, r6, #3
  4006fa:	4430      	add	r0, r6
  4006fc:	3004      	adds	r0, #4
  4006fe:	4798      	blx	r3
  400700:	b928      	cbnz	r0, 40070e <adc_async_register_channel_buffer+0x4a>
  400702:	6a2b      	ldr	r3, [r5, #32]
  400704:	55dc      	strb	r4, [r3, r7]
  400706:	6aab      	ldr	r3, [r5, #40]	; 0x28
  400708:	441e      	add	r6, r3
  40070a:	82b0      	strh	r0, [r6, #20]
  40070c:	bdf8      	pop	{r3, r4, r5, r6, r7, pc}
  40070e:	f06f 000c 	mvn.w	r0, #12
  400712:	bdf8      	pop	{r3, r4, r5, r6, r7, pc}
  400714:	f81e 6006 	ldrb.w	r6, [lr, r6]
  400718:	3001      	adds	r0, #1
  40071a:	2eff      	cmp	r6, #255	; 0xff
  40071c:	bf1c      	itt	ne
  40071e:	3401      	addne	r4, #1
  400720:	b2e4      	uxtbne	r4, r4
  400722:	e7dd      	b.n	4006e0 <adc_async_register_channel_buffer+0x1c>
  400724:	f06f 001b 	mvn.w	r0, #27
  400728:	bdf8      	pop	{r3, r4, r5, r6, r7, pc}
  40072a:	bf00      	nop
  40072c:	00400b8b 	.word	0x00400b8b

00400730 <atomic_enter_critical>:
  400730:	f3ef 8310 	mrs	r3, PRIMASK
  400734:	6003      	str	r3, [r0, #0]
  400736:	b672      	cpsid	i
  400738:	f3bf 8f5f 	dmb	sy
  40073c:	4770      	bx	lr

0040073e <atomic_leave_critical>:
  40073e:	f3bf 8f5f 	dmb	sy
  400742:	6803      	ldr	r3, [r0, #0]
  400744:	f383 8810 	msr	PRIMASK, r3
  400748:	4770      	bx	lr

0040074a <can_tx_done>:
  40074a:	69c3      	ldr	r3, [r0, #28]
  40074c:	b103      	cbz	r3, 400750 <can_tx_done+0x6>
  40074e:	4718      	bx	r3
  400750:	4770      	bx	lr

00400752 <can_rx_done>:
  400752:	6a03      	ldr	r3, [r0, #32]
  400754:	b103      	cbz	r3, 400758 <can_rx_done+0x6>
  400756:	4718      	bx	r3
  400758:	4770      	bx	lr

0040075a <can_irq_handler>:
  40075a:	6a43      	ldr	r3, [r0, #36]	; 0x24
  40075c:	b103      	cbz	r3, 400760 <can_irq_handler+0x6>
  40075e:	4718      	bx	r3
  400760:	4770      	bx	lr
	...

00400764 <can_async_init>:
  400764:	b510      	push	{r4, lr}
  400766:	4b05      	ldr	r3, [pc, #20]	; (40077c <can_async_init+0x18>)
  400768:	4604      	mov	r4, r0
  40076a:	4798      	blx	r3
  40076c:	b928      	cbnz	r0, 40077a <can_async_init+0x16>
  40076e:	4b04      	ldr	r3, [pc, #16]	; (400780 <can_async_init+0x1c>)
  400770:	6063      	str	r3, [r4, #4]
  400772:	4b04      	ldr	r3, [pc, #16]	; (400784 <can_async_init+0x20>)
  400774:	60a3      	str	r3, [r4, #8]
  400776:	4b04      	ldr	r3, [pc, #16]	; (400788 <can_async_init+0x24>)
  400778:	60e3      	str	r3, [r4, #12]
  40077a:	bd10      	pop	{r4, pc}
  40077c:	00400ea1 	.word	0x00400ea1
  400780:	0040074b 	.word	0x0040074b
  400784:	00400753 	.word	0x00400753
  400788:	0040075b 	.word	0x0040075b

0040078c <can_async_enable>:
  40078c:	4b00      	ldr	r3, [pc, #0]	; (400790 <can_async_enable+0x4>)
  40078e:	4718      	bx	r3
  400790:	00400f81 	.word	0x00400f81

00400794 <can_async_read>:
  400794:	4b00      	ldr	r3, [pc, #0]	; (400798 <can_async_read+0x4>)
  400796:	4718      	bx	r3
  400798:	00400f91 	.word	0x00400f91

0040079c <can_async_register_callback>:
  40079c:	2901      	cmp	r1, #1
  40079e:	b508      	push	{r3, lr}
  4007a0:	d00d      	beq.n	4007be <can_async_register_callback+0x22>
  4007a2:	d304      	bcc.n	4007ae <can_async_register_callback+0x12>
  4007a4:	2902      	cmp	r1, #2
  4007a6:	d00c      	beq.n	4007c2 <can_async_register_callback+0x26>
  4007a8:	f06f 000c 	mvn.w	r0, #12
  4007ac:	bd08      	pop	{r3, pc}
  4007ae:	6202      	str	r2, [r0, #32]
  4007b0:	3200      	adds	r2, #0
  4007b2:	4b05      	ldr	r3, [pc, #20]	; (4007c8 <can_async_register_callback+0x2c>)
  4007b4:	bf18      	it	ne
  4007b6:	2201      	movne	r2, #1
  4007b8:	4798      	blx	r3
  4007ba:	2000      	movs	r0, #0
  4007bc:	bd08      	pop	{r3, pc}
  4007be:	61c2      	str	r2, [r0, #28]
  4007c0:	e7f6      	b.n	4007b0 <can_async_register_callback+0x14>
  4007c2:	6242      	str	r2, [r0, #36]	; 0x24
  4007c4:	e7f4      	b.n	4007b0 <can_async_register_callback+0x14>
  4007c6:	bf00      	nop
  4007c8:	00401051 	.word	0x00401051

004007cc <can_async_set_filter>:
  4007cc:	b410      	push	{r4}
  4007ce:	4c02      	ldr	r4, [pc, #8]	; (4007d8 <can_async_set_filter+0xc>)
  4007d0:	46a4      	mov	ip, r4
  4007d2:	f85d 4b04 	ldr.w	r4, [sp], #4
  4007d6:	4760      	bx	ip
  4007d8:	00401091 	.word	0x00401091

004007dc <delay_ms>:
  4007dc:	4b05      	ldr	r3, [pc, #20]	; (4007f4 <delay_ms+0x18>)
  4007de:	b510      	push	{r4, lr}
  4007e0:	681c      	ldr	r4, [r3, #0]
  4007e2:	4b05      	ldr	r3, [pc, #20]	; (4007f8 <delay_ms+0x1c>)
  4007e4:	4798      	blx	r3
  4007e6:	4b05      	ldr	r3, [pc, #20]	; (4007fc <delay_ms+0x20>)
  4007e8:	4601      	mov	r1, r0
  4007ea:	4620      	mov	r0, r4
  4007ec:	e8bd 4010 	ldmia.w	sp!, {r4, lr}
  4007f0:	4718      	bx	r3
  4007f2:	bf00      	nop
  4007f4:	204002dc 	.word	0x204002dc
  4007f8:	00400dfd 	.word	0x00400dfd
  4007fc:	00400e09 	.word	0x00400e09

00400800 <flash_ready>:
  400800:	6943      	ldr	r3, [r0, #20]
  400802:	b103      	cbz	r3, 400806 <flash_ready+0x6>
  400804:	4718      	bx	r3
  400806:	4770      	bx	lr

00400808 <flash_error>:
  400808:	6983      	ldr	r3, [r0, #24]
  40080a:	b103      	cbz	r3, 40080e <flash_error+0x6>
  40080c:	4718      	bx	r3
  40080e:	4770      	bx	lr

00400810 <flash_init>:
  400810:	b510      	push	{r4, lr}
  400812:	4b04      	ldr	r3, [pc, #16]	; (400824 <flash_init+0x14>)
  400814:	4604      	mov	r4, r0
  400816:	4798      	blx	r3
  400818:	b918      	cbnz	r0, 400822 <flash_init+0x12>
  40081a:	4b03      	ldr	r3, [pc, #12]	; (400828 <flash_init+0x18>)
  40081c:	6023      	str	r3, [r4, #0]
  40081e:	4b03      	ldr	r3, [pc, #12]	; (40082c <flash_init+0x1c>)
  400820:	6063      	str	r3, [r4, #4]
  400822:	bd10      	pop	{r4, pc}
  400824:	00400e61 	.word	0x00400e61
  400828:	00400801 	.word	0x00400801
  40082c:	00400809 	.word	0x00400809

00400830 <io_write>:
  400830:	6803      	ldr	r3, [r0, #0]
  400832:	4718      	bx	r3

00400834 <io_read>:
  400834:	6843      	ldr	r3, [r0, #4]
  400836:	4718      	bx	r3

00400838 <timer_add_timer_task>:
  400838:	b5f0      	push	{r4, r5, r6, r7, lr}
  40083a:	6805      	ldr	r5, [r0, #0]
  40083c:	b91d      	cbnz	r5, 400846 <timer_add_timer_task+0xe>
  40083e:	4b0f      	ldr	r3, [pc, #60]	; (40087c <timer_add_timer_task+0x44>)
  400840:	e8bd 40f0 	ldmia.w	sp!, {r4, r5, r6, r7, lr}
  400844:	4718      	bx	r3
  400846:	f8d1 e008 	ldr.w	lr, [r1, #8]
  40084a:	462c      	mov	r4, r5
  40084c:	2600      	movs	r6, #0
  40084e:	f1c2 0c01 	rsb	ip, r2, #1
  400852:	6863      	ldr	r3, [r4, #4]
  400854:	68a7      	ldr	r7, [r4, #8]
  400856:	4293      	cmp	r3, r2
  400858:	bf95      	itete	ls
  40085a:	19db      	addls	r3, r3, r7
  40085c:	4463      	addhi	r3, ip
  40085e:	1a9b      	subls	r3, r3, r2
  400860:	19db      	addhi	r3, r3, r7
  400862:	4573      	cmp	r3, lr
  400864:	d207      	bcs.n	400876 <timer_add_timer_task+0x3e>
  400866:	6823      	ldr	r3, [r4, #0]
  400868:	4626      	mov	r6, r4
  40086a:	b913      	cbnz	r3, 400872 <timer_add_timer_task+0x3a>
  40086c:	4630      	mov	r0, r6
  40086e:	4b04      	ldr	r3, [pc, #16]	; (400880 <timer_add_timer_task+0x48>)
  400870:	e7e6      	b.n	400840 <timer_add_timer_task+0x8>
  400872:	461c      	mov	r4, r3
  400874:	e7ed      	b.n	400852 <timer_add_timer_task+0x1a>
  400876:	42a5      	cmp	r5, r4
  400878:	d1f8      	bne.n	40086c <timer_add_timer_task+0x34>
  40087a:	e7e0      	b.n	40083e <timer_add_timer_task+0x6>
  40087c:	00400b6f 	.word	0x00400b6f
  400880:	00400b77 	.word	0x00400b77

00400884 <timer_process_counted>:
  400884:	e92d 47f0 	stmdb	sp!, {r4, r5, r6, r7, r8, r9, sl, lr}
  400888:	6906      	ldr	r6, [r0, #16]
  40088a:	4605      	mov	r5, r0
  40088c:	7e03      	ldrb	r3, [r0, #24]
  40088e:	3601      	adds	r6, #1
  400890:	6944      	ldr	r4, [r0, #20]
  400892:	07da      	lsls	r2, r3, #31
  400894:	6106      	str	r6, [r0, #16]
  400896:	d410      	bmi.n	4008ba <timer_process_counted+0x36>
  400898:	7e03      	ldrb	r3, [r0, #24]
  40089a:	079b      	lsls	r3, r3, #30
  40089c:	d40d      	bmi.n	4008ba <timer_process_counted+0x36>
  40089e:	f100 0714 	add.w	r7, r0, #20
  4008a2:	f8df 8044 	ldr.w	r8, [pc, #68]	; 4008e8 <timer_process_counted+0x64>
  4008a6:	f8df 9044 	ldr.w	r9, [pc, #68]	; 4008ec <timer_process_counted+0x68>
  4008aa:	b124      	cbz	r4, 4008b6 <timer_process_counted+0x32>
  4008ac:	6863      	ldr	r3, [r4, #4]
  4008ae:	68a2      	ldr	r2, [r4, #8]
  4008b0:	1af3      	subs	r3, r6, r3
  4008b2:	4293      	cmp	r3, r2
  4008b4:	d207      	bcs.n	4008c6 <timer_process_counted+0x42>
  4008b6:	e8bd 87f0 	ldmia.w	sp!, {r4, r5, r6, r7, r8, r9, sl, pc}
  4008ba:	7e2b      	ldrb	r3, [r5, #24]
  4008bc:	f043 0302 	orr.w	r3, r3, #2
  4008c0:	762b      	strb	r3, [r5, #24]
  4008c2:	e8bd 87f0 	ldmia.w	sp!, {r4, r5, r6, r7, r8, r9, sl, pc}
  4008c6:	4638      	mov	r0, r7
  4008c8:	47c0      	blx	r8
  4008ca:	7c23      	ldrb	r3, [r4, #16]
  4008cc:	2b01      	cmp	r3, #1
  4008ce:	d104      	bne.n	4008da <timer_process_counted+0x56>
  4008d0:	6066      	str	r6, [r4, #4]
  4008d2:	4632      	mov	r2, r6
  4008d4:	4621      	mov	r1, r4
  4008d6:	4638      	mov	r0, r7
  4008d8:	47c8      	blx	r9
  4008da:	f8d5 a014 	ldr.w	sl, [r5, #20]
  4008de:	4620      	mov	r0, r4
  4008e0:	68e3      	ldr	r3, [r4, #12]
  4008e2:	4798      	blx	r3
  4008e4:	4654      	mov	r4, sl
  4008e6:	e7e0      	b.n	4008aa <timer_process_counted+0x26>
  4008e8:	00400b7f 	.word	0x00400b7f
  4008ec:	00400839 	.word	0x00400839

004008f0 <timer_init>:
  4008f0:	b510      	push	{r4, lr}
  4008f2:	4b04      	ldr	r3, [pc, #16]	; (400904 <timer_init+0x14>)
  4008f4:	4604      	mov	r4, r0
  4008f6:	4798      	blx	r3
  4008f8:	2000      	movs	r0, #0
  4008fa:	4b03      	ldr	r3, [pc, #12]	; (400908 <timer_init+0x18>)
  4008fc:	6120      	str	r0, [r4, #16]
  4008fe:	6023      	str	r3, [r4, #0]
  400900:	bd10      	pop	{r4, pc}
  400902:	bf00      	nop
  400904:	00401241 	.word	0x00401241
  400908:	00400885 	.word	0x00400885

0040090c <timer_start>:
  40090c:	b538      	push	{r3, r4, r5, lr}
  40090e:	4b06      	ldr	r3, [pc, #24]	; (400928 <timer_start+0x1c>)
  400910:	4605      	mov	r5, r0
  400912:	4798      	blx	r3
  400914:	4604      	mov	r4, r0
  400916:	b920      	cbnz	r0, 400922 <timer_start+0x16>
  400918:	4628      	mov	r0, r5
  40091a:	4b04      	ldr	r3, [pc, #16]	; (40092c <timer_start+0x20>)
  40091c:	4798      	blx	r3
  40091e:	4620      	mov	r0, r4
  400920:	bd38      	pop	{r3, r4, r5, pc}
  400922:	f06f 0010 	mvn.w	r0, #16
  400926:	bd38      	pop	{r3, r4, r5, pc}
  400928:	004012c9 	.word	0x004012c9
  40092c:	004012c1 	.word	0x004012c1

00400930 <timer_add_task>:
  400930:	b5f7      	push	{r0, r1, r2, r4, r5, r6, r7, lr}
  400932:	7e03      	ldrb	r3, [r0, #24]
  400934:	f100 0614 	add.w	r6, r0, #20
  400938:	4604      	mov	r4, r0
  40093a:	460f      	mov	r7, r1
  40093c:	f043 0301 	orr.w	r3, r3, #1
  400940:	7603      	strb	r3, [r0, #24]
  400942:	4630      	mov	r0, r6
  400944:	4b14      	ldr	r3, [pc, #80]	; (400998 <timer_add_task+0x68>)
  400946:	4798      	blx	r3
  400948:	4605      	mov	r5, r0
  40094a:	b138      	cbz	r0, 40095c <timer_add_task+0x2c>
  40094c:	7e23      	ldrb	r3, [r4, #24]
  40094e:	f06f 0011 	mvn.w	r0, #17
  400952:	f003 03fe 	and.w	r3, r3, #254	; 0xfe
  400956:	7623      	strb	r3, [r4, #24]
  400958:	b003      	add	sp, #12
  40095a:	bdf0      	pop	{r4, r5, r6, r7, pc}
  40095c:	6922      	ldr	r2, [r4, #16]
  40095e:	4630      	mov	r0, r6
  400960:	4b0e      	ldr	r3, [pc, #56]	; (40099c <timer_add_task+0x6c>)
  400962:	4639      	mov	r1, r7
  400964:	607a      	str	r2, [r7, #4]
  400966:	4798      	blx	r3
  400968:	7e23      	ldrb	r3, [r4, #24]
  40096a:	f003 03fe 	and.w	r3, r3, #254	; 0xfe
  40096e:	7623      	strb	r3, [r4, #24]
  400970:	7e20      	ldrb	r0, [r4, #24]
  400972:	f010 0002 	ands.w	r0, r0, #2
  400976:	d0ef      	beq.n	400958 <timer_add_task+0x28>
  400978:	a801      	add	r0, sp, #4
  40097a:	4b09      	ldr	r3, [pc, #36]	; (4009a0 <timer_add_task+0x70>)
  40097c:	4798      	blx	r3
  40097e:	7e23      	ldrb	r3, [r4, #24]
  400980:	4620      	mov	r0, r4
  400982:	f003 03fd 	and.w	r3, r3, #253	; 0xfd
  400986:	7623      	strb	r3, [r4, #24]
  400988:	4b06      	ldr	r3, [pc, #24]	; (4009a4 <timer_add_task+0x74>)
  40098a:	4798      	blx	r3
  40098c:	a801      	add	r0, sp, #4
  40098e:	4b06      	ldr	r3, [pc, #24]	; (4009a8 <timer_add_task+0x78>)
  400990:	4798      	blx	r3
  400992:	4628      	mov	r0, r5
  400994:	e7e0      	b.n	400958 <timer_add_task+0x28>
  400996:	bf00      	nop
  400998:	00400b61 	.word	0x00400b61
  40099c:	00400839 	.word	0x00400839
  4009a0:	00400731 	.word	0x00400731
  4009a4:	004012d5 	.word	0x004012d5
  4009a8:	0040073f 	.word	0x0040073f

004009ac <usart_transmission_complete>:
  4009ac:	4603      	mov	r3, r0
  4009ae:	2200      	movs	r2, #0
  4009b0:	3808      	subs	r0, #8
  4009b2:	629a      	str	r2, [r3, #40]	; 0x28
  4009b4:	69db      	ldr	r3, [r3, #28]
  4009b6:	b103      	cbz	r3, 4009ba <usart_transmission_complete+0xe>
  4009b8:	4718      	bx	r3
  4009ba:	4770      	bx	lr

004009bc <usart_error>:
  4009bc:	4603      	mov	r3, r0
  4009be:	2200      	movs	r2, #0
  4009c0:	3808      	subs	r0, #8
  4009c2:	629a      	str	r2, [r3, #40]	; 0x28
  4009c4:	6a5b      	ldr	r3, [r3, #36]	; 0x24
  4009c6:	b103      	cbz	r3, 4009ca <usart_error+0xe>
  4009c8:	4718      	bx	r3
  4009ca:	4770      	bx	lr

004009cc <usart_fill_rx_buffer>:
  4009cc:	b570      	push	{r4, r5, r6, lr}
  4009ce:	4604      	mov	r4, r0
  4009d0:	4b05      	ldr	r3, [pc, #20]	; (4009e8 <usart_fill_rx_buffer+0x1c>)
  4009d2:	f1a0 0508 	sub.w	r5, r0, #8
  4009d6:	302c      	adds	r0, #44	; 0x2c
  4009d8:	4798      	blx	r3
  4009da:	6a23      	ldr	r3, [r4, #32]
  4009dc:	b11b      	cbz	r3, 4009e6 <usart_fill_rx_buffer+0x1a>
  4009de:	4628      	mov	r0, r5
  4009e0:	e8bd 4070 	ldmia.w	sp!, {r4, r5, r6, lr}
  4009e4:	4718      	bx	r3
  4009e6:	bd70      	pop	{r4, r5, r6, pc}
  4009e8:	00400bc5 	.word	0x00400bc5

004009ec <usart_async_write>:
  4009ec:	b510      	push	{r4, lr}
  4009ee:	f8b0 304c 	ldrh.w	r3, [r0, #76]	; 0x4c
  4009f2:	4614      	mov	r4, r2
  4009f4:	f8b0 2044 	ldrh.w	r2, [r0, #68]	; 0x44
  4009f8:	429a      	cmp	r2, r3
  4009fa:	d10b      	bne.n	400a14 <usart_async_write+0x28>
  4009fc:	2300      	movs	r3, #0
  4009fe:	6481      	str	r1, [r0, #72]	; 0x48
  400a00:	f8a0 404c 	strh.w	r4, [r0, #76]	; 0x4c
  400a04:	3008      	adds	r0, #8
  400a06:	8783      	strh	r3, [r0, #60]	; 0x3c
  400a08:	2301      	movs	r3, #1
  400a0a:	6283      	str	r3, [r0, #40]	; 0x28
  400a0c:	4b03      	ldr	r3, [pc, #12]	; (400a1c <usart_async_write+0x30>)
  400a0e:	4798      	blx	r3
  400a10:	4620      	mov	r0, r4
  400a12:	bd10      	pop	{r4, pc}
  400a14:	f06f 001b 	mvn.w	r0, #27
  400a18:	bd10      	pop	{r4, pc}
  400a1a:	bf00      	nop
  400a1c:	004014a7 	.word	0x004014a7

00400a20 <usart_process_byte_sent>:
  400a20:	8f83      	ldrh	r3, [r0, #60]	; 0x3c
  400a22:	f8b0 2044 	ldrh.w	r2, [r0, #68]	; 0x44
  400a26:	429a      	cmp	r2, r3
  400a28:	b510      	push	{r4, lr}
  400a2a:	4604      	mov	r4, r0
  400a2c:	d00a      	beq.n	400a44 <usart_process_byte_sent+0x24>
  400a2e:	6c02      	ldr	r2, [r0, #64]	; 0x40
  400a30:	1c59      	adds	r1, r3, #1
  400a32:	8781      	strh	r1, [r0, #60]	; 0x3c
  400a34:	5cd1      	ldrb	r1, [r2, r3]
  400a36:	4b04      	ldr	r3, [pc, #16]	; (400a48 <usart_process_byte_sent+0x28>)
  400a38:	4798      	blx	r3
  400a3a:	4620      	mov	r0, r4
  400a3c:	4b03      	ldr	r3, [pc, #12]	; (400a4c <usart_process_byte_sent+0x2c>)
  400a3e:	e8bd 4010 	ldmia.w	sp!, {r4, lr}
  400a42:	4718      	bx	r3
  400a44:	4b02      	ldr	r3, [pc, #8]	; (400a50 <usart_process_byte_sent+0x30>)
  400a46:	e7fa      	b.n	400a3e <usart_process_byte_sent+0x1e>
  400a48:	004014a1 	.word	0x004014a1
  400a4c:	004014a7 	.word	0x004014a7
  400a50:	004014af 	.word	0x004014af

00400a54 <usart_async_read>:
  400a54:	e92d 43f7 	stmdb	sp!, {r0, r1, r2, r4, r5, r6, r7, r8, r9, lr}
  400a58:	4605      	mov	r5, r0
  400a5a:	4b0f      	ldr	r3, [pc, #60]	; (400a98 <usart_async_read+0x44>)
  400a5c:	a801      	add	r0, sp, #4
  400a5e:	4688      	mov	r8, r1
  400a60:	3534      	adds	r5, #52	; 0x34
  400a62:	4616      	mov	r6, r2
  400a64:	2400      	movs	r4, #0
  400a66:	4798      	blx	r3
  400a68:	f8df 9038 	ldr.w	r9, [pc, #56]	; 400aa4 <usart_async_read+0x50>
  400a6c:	4628      	mov	r0, r5
  400a6e:	4b0b      	ldr	r3, [pc, #44]	; (400a9c <usart_async_read+0x48>)
  400a70:	4798      	blx	r3
  400a72:	4b0b      	ldr	r3, [pc, #44]	; (400aa0 <usart_async_read+0x4c>)
  400a74:	4607      	mov	r7, r0
  400a76:	a801      	add	r0, sp, #4
  400a78:	4798      	blx	r3
  400a7a:	42a7      	cmp	r7, r4
  400a7c:	d001      	beq.n	400a82 <usart_async_read+0x2e>
  400a7e:	42b4      	cmp	r4, r6
  400a80:	d103      	bne.n	400a8a <usart_async_read+0x36>
  400a82:	b2a0      	uxth	r0, r4
  400a84:	b003      	add	sp, #12
  400a86:	e8bd 83f0 	ldmia.w	sp!, {r4, r5, r6, r7, r8, r9, pc}
  400a8a:	eb08 0104 	add.w	r1, r8, r4
  400a8e:	4628      	mov	r0, r5
  400a90:	47c8      	blx	r9
  400a92:	3401      	adds	r4, #1
  400a94:	e7f1      	b.n	400a7a <usart_async_read+0x26>
  400a96:	bf00      	nop
  400a98:	00400731 	.word	0x00400731
  400a9c:	00400beb 	.word	0x00400beb
  400aa0:	0040073f 	.word	0x0040073f
  400aa4:	00400ba3 	.word	0x00400ba3

00400aa8 <usart_async_init>:
  400aa8:	b538      	push	{r3, r4, r5, lr}
  400aaa:	4604      	mov	r4, r0
  400aac:	460d      	mov	r5, r1
  400aae:	3034      	adds	r0, #52	; 0x34
  400ab0:	4611      	mov	r1, r2
  400ab2:	461a      	mov	r2, r3
  400ab4:	4b0c      	ldr	r3, [pc, #48]	; (400ae8 <usart_async_init+0x40>)
  400ab6:	4798      	blx	r3
  400ab8:	b990      	cbnz	r0, 400ae0 <usart_async_init+0x38>
  400aba:	4629      	mov	r1, r5
  400abc:	f104 0008 	add.w	r0, r4, #8
  400ac0:	4b0a      	ldr	r3, [pc, #40]	; (400aec <usart_async_init+0x44>)
  400ac2:	4798      	blx	r3
  400ac4:	b970      	cbnz	r0, 400ae4 <usart_async_init+0x3c>
  400ac6:	4b0a      	ldr	r3, [pc, #40]	; (400af0 <usart_async_init+0x48>)
  400ac8:	6063      	str	r3, [r4, #4]
  400aca:	4b0a      	ldr	r3, [pc, #40]	; (400af4 <usart_async_init+0x4c>)
  400acc:	6023      	str	r3, [r4, #0]
  400ace:	4b0a      	ldr	r3, [pc, #40]	; (400af8 <usart_async_init+0x50>)
  400ad0:	60a3      	str	r3, [r4, #8]
  400ad2:	4b0a      	ldr	r3, [pc, #40]	; (400afc <usart_async_init+0x54>)
  400ad4:	60e3      	str	r3, [r4, #12]
  400ad6:	4b0a      	ldr	r3, [pc, #40]	; (400b00 <usart_async_init+0x58>)
  400ad8:	6123      	str	r3, [r4, #16]
  400ada:	4b0a      	ldr	r3, [pc, #40]	; (400b04 <usart_async_init+0x5c>)
  400adc:	6163      	str	r3, [r4, #20]
  400ade:	bd38      	pop	{r3, r4, r5, pc}
  400ae0:	f06f 000c 	mvn.w	r0, #12
  400ae4:	bd38      	pop	{r3, r4, r5, pc}
  400ae6:	bf00      	nop
  400ae8:	00400b8b 	.word	0x00400b8b
  400aec:	004013f9 	.word	0x004013f9
  400af0:	00400a55 	.word	0x00400a55
  400af4:	004009ed 	.word	0x004009ed
  400af8:	00400a21 	.word	0x00400a21
  400afc:	004009cd 	.word	0x004009cd
  400b00:	004009ad 	.word	0x004009ad
  400b04:	004009bd 	.word	0x004009bd

00400b08 <usart_async_enable>:
  400b08:	b508      	push	{r3, lr}
  400b0a:	3008      	adds	r0, #8
  400b0c:	4b01      	ldr	r3, [pc, #4]	; (400b14 <usart_async_enable+0xc>)
  400b0e:	4798      	blx	r3
  400b10:	2000      	movs	r0, #0
  400b12:	bd08      	pop	{r3, pc}
  400b14:	00401499 	.word	0x00401499

00400b18 <usart_async_register_callback>:
  400b18:	2901      	cmp	r1, #1
  400b1a:	b508      	push	{r3, lr}
  400b1c:	d010      	beq.n	400b40 <usart_async_register_callback+0x28>
  400b1e:	d304      	bcc.n	400b2a <usart_async_register_callback+0x12>
  400b20:	2902      	cmp	r1, #2
  400b22:	d014      	beq.n	400b4e <usart_async_register_callback+0x36>
  400b24:	f06f 000c 	mvn.w	r0, #12
  400b28:	bd08      	pop	{r3, pc}
  400b2a:	6282      	str	r2, [r0, #40]	; 0x28
  400b2c:	3200      	adds	r2, #0
  400b2e:	f04f 0101 	mov.w	r1, #1
  400b32:	bf18      	it	ne
  400b34:	2201      	movne	r2, #1
  400b36:	3008      	adds	r0, #8
  400b38:	4b08      	ldr	r3, [pc, #32]	; (400b5c <usart_async_register_callback+0x44>)
  400b3a:	4798      	blx	r3
  400b3c:	2000      	movs	r0, #0
  400b3e:	bd08      	pop	{r3, pc}
  400b40:	6242      	str	r2, [r0, #36]	; 0x24
  400b42:	3200      	adds	r2, #0
  400b44:	f04f 0102 	mov.w	r1, #2
  400b48:	bf18      	it	ne
  400b4a:	2201      	movne	r2, #1
  400b4c:	e7f3      	b.n	400b36 <usart_async_register_callback+0x1e>
  400b4e:	62c2      	str	r2, [r0, #44]	; 0x2c
  400b50:	3200      	adds	r2, #0
  400b52:	f04f 0103 	mov.w	r1, #3
  400b56:	bf18      	it	ne
  400b58:	2201      	movne	r2, #1
  400b5a:	e7ec      	b.n	400b36 <usart_async_register_callback+0x1e>
  400b5c:	004014b9 	.word	0x004014b9

00400b60 <is_list_element>:
  400b60:	6800      	ldr	r0, [r0, #0]
  400b62:	b900      	cbnz	r0, 400b66 <is_list_element+0x6>
  400b64:	4770      	bx	lr
  400b66:	4288      	cmp	r0, r1
  400b68:	d1fa      	bne.n	400b60 <is_list_element>
  400b6a:	2001      	movs	r0, #1
  400b6c:	4770      	bx	lr

00400b6e <list_insert_as_head>:
  400b6e:	6803      	ldr	r3, [r0, #0]
  400b70:	600b      	str	r3, [r1, #0]
  400b72:	6001      	str	r1, [r0, #0]
  400b74:	4770      	bx	lr

00400b76 <list_insert_after>:
  400b76:	6803      	ldr	r3, [r0, #0]
  400b78:	600b      	str	r3, [r1, #0]
  400b7a:	6001      	str	r1, [r0, #0]
  400b7c:	4770      	bx	lr

00400b7e <list_remove_head>:
  400b7e:	6803      	ldr	r3, [r0, #0]
  400b80:	b10b      	cbz	r3, 400b86 <list_remove_head+0x8>
  400b82:	681a      	ldr	r2, [r3, #0]
  400b84:	6002      	str	r2, [r0, #0]
  400b86:	4618      	mov	r0, r3
  400b88:	4770      	bx	lr

00400b8a <ringbuffer_init>:
  400b8a:	1e53      	subs	r3, r2, #1
  400b8c:	401a      	ands	r2, r3
  400b8e:	bf01      	itttt	eq
  400b90:	6043      	streq	r3, [r0, #4]
  400b92:	6082      	streq	r2, [r0, #8]
  400b94:	60c2      	streq	r2, [r0, #12]
  400b96:	6001      	streq	r1, [r0, #0]
  400b98:	bf0c      	ite	eq
  400b9a:	4610      	moveq	r0, r2
  400b9c:	f06f 000c 	mvnne.w	r0, #12
  400ba0:	4770      	bx	lr

00400ba2 <ringbuffer_get>:
  400ba2:	6883      	ldr	r3, [r0, #8]
  400ba4:	68c2      	ldr	r2, [r0, #12]
  400ba6:	429a      	cmp	r2, r3
  400ba8:	d009      	beq.n	400bbe <ringbuffer_get+0x1c>
  400baa:	6842      	ldr	r2, [r0, #4]
  400bac:	4013      	ands	r3, r2
  400bae:	6802      	ldr	r2, [r0, #0]
  400bb0:	5cd3      	ldrb	r3, [r2, r3]
  400bb2:	700b      	strb	r3, [r1, #0]
  400bb4:	6883      	ldr	r3, [r0, #8]
  400bb6:	3301      	adds	r3, #1
  400bb8:	6083      	str	r3, [r0, #8]
  400bba:	2000      	movs	r0, #0
  400bbc:	4770      	bx	lr
  400bbe:	f06f 0009 	mvn.w	r0, #9
  400bc2:	4770      	bx	lr

00400bc4 <ringbuffer_put>:
  400bc4:	68c3      	ldr	r3, [r0, #12]
  400bc6:	6842      	ldr	r2, [r0, #4]
  400bc8:	4013      	ands	r3, r2
  400bca:	6802      	ldr	r2, [r0, #0]
  400bcc:	54d1      	strb	r1, [r2, r3]
  400bce:	68c3      	ldr	r3, [r0, #12]
  400bd0:	6881      	ldr	r1, [r0, #8]
  400bd2:	6842      	ldr	r2, [r0, #4]
  400bd4:	1a59      	subs	r1, r3, r1
  400bd6:	4291      	cmp	r1, r2
  400bd8:	bf88      	it	hi
  400bda:	1a9a      	subhi	r2, r3, r2
  400bdc:	f103 0301 	add.w	r3, r3, #1
  400be0:	bf88      	it	hi
  400be2:	6082      	strhi	r2, [r0, #8]
  400be4:	60c3      	str	r3, [r0, #12]
  400be6:	2000      	movs	r0, #0
  400be8:	4770      	bx	lr

00400bea <ringbuffer_num>:
  400bea:	68c2      	ldr	r2, [r0, #12]
  400bec:	6880      	ldr	r0, [r0, #8]
  400bee:	1a10      	subs	r0, r2, r0
  400bf0:	4770      	bx	lr
	...

00400bf4 <_sbrk>:
  400bf4:	4b04      	ldr	r3, [pc, #16]	; (400c08 <_sbrk+0x14>)
  400bf6:	4602      	mov	r2, r0
  400bf8:	6819      	ldr	r1, [r3, #0]
  400bfa:	b909      	cbnz	r1, 400c00 <_sbrk+0xc>
  400bfc:	4903      	ldr	r1, [pc, #12]	; (400c0c <_sbrk+0x18>)
  400bfe:	6019      	str	r1, [r3, #0]
  400c00:	6818      	ldr	r0, [r3, #0]
  400c02:	4402      	add	r2, r0
  400c04:	601a      	str	r2, [r3, #0]
  400c06:	4770      	bx	lr
  400c08:	204002e0 	.word	0x204002e0
  400c0c:	20400f18 	.word	0x20400f18

00400c10 <__NVIC_DisableIRQ>:
  400c10:	2800      	cmp	r0, #0
  400c12:	db0d      	blt.n	400c30 <__NVIC_DisableIRQ+0x20>
  400c14:	0943      	lsrs	r3, r0, #5
  400c16:	2201      	movs	r2, #1
  400c18:	f000 001f 	and.w	r0, r0, #31
  400c1c:	3320      	adds	r3, #32
  400c1e:	fa02 f000 	lsl.w	r0, r2, r0
  400c22:	4a04      	ldr	r2, [pc, #16]	; (400c34 <__NVIC_DisableIRQ+0x24>)
  400c24:	f842 0023 	str.w	r0, [r2, r3, lsl #2]
  400c28:	f3bf 8f4f 	dsb	sy
  400c2c:	f3bf 8f6f 	isb	sy
  400c30:	4770      	bx	lr
  400c32:	bf00      	nop
  400c34:	e000e100 	.word	0xe000e100

00400c38 <_afec_get_regs>:
  400c38:	4b02      	ldr	r3, [pc, #8]	; (400c44 <_afec_get_regs+0xc>)
  400c3a:	1ac3      	subs	r3, r0, r3
  400c3c:	4258      	negs	r0, r3
  400c3e:	4158      	adcs	r0, r3
  400c40:	4770      	bx	lr
  400c42:	bf00      	nop
  400c44:	40064000 	.word	0x40064000

00400c48 <_afec_init>:
  400c48:	b530      	push	{r4, r5, lr}
  400c4a:	2264      	movs	r2, #100	; 0x64
  400c4c:	4c16      	ldr	r4, [pc, #88]	; (400ca8 <_afec_init+0x60>)
  400c4e:	fb02 4301 	mla	r3, r2, r1, r4
  400c52:	fb01 4102 	mla	r1, r1, r2, r4
  400c56:	685d      	ldr	r5, [r3, #4]
  400c58:	3130      	adds	r1, #48	; 0x30
  400c5a:	6045      	str	r5, [r0, #4]
  400c5c:	689d      	ldr	r5, [r3, #8]
  400c5e:	6085      	str	r5, [r0, #8]
  400c60:	68dd      	ldr	r5, [r3, #12]
  400c62:	60c5      	str	r5, [r0, #12]
  400c64:	691d      	ldr	r5, [r3, #16]
  400c66:	6105      	str	r5, [r0, #16]
  400c68:	695d      	ldr	r5, [r3, #20]
  400c6a:	6505      	str	r5, [r0, #80]	; 0x50
  400c6c:	699d      	ldr	r5, [r3, #24]
  400c6e:	6545      	str	r5, [r0, #84]	; 0x54
  400c70:	69dd      	ldr	r5, [r3, #28]
  400c72:	6605      	str	r5, [r0, #96]	; 0x60
  400c74:	6a1d      	ldr	r5, [r3, #32]
  400c76:	f8c0 5094 	str.w	r5, [r0, #148]	; 0x94
  400c7a:	6a5d      	ldr	r5, [r3, #36]	; 0x24
  400c7c:	f8c0 50a0 	str.w	r5, [r0, #160]	; 0xa0
  400c80:	6a9d      	ldr	r5, [r3, #40]	; 0x28
  400c82:	f8c0 50d0 	str.w	r5, [r0, #208]	; 0xd0
  400c86:	6add      	ldr	r5, [r3, #44]	; 0x2c
  400c88:	6b1b      	ldr	r3, [r3, #48]	; 0x30
  400c8a:	f8c0 50d4 	str.w	r5, [r0, #212]	; 0xd4
  400c8e:	f8c0 30d8 	str.w	r3, [r0, #216]	; 0xd8
  400c92:	2300      	movs	r3, #0
  400c94:	6643      	str	r3, [r0, #100]	; 0x64
  400c96:	3301      	adds	r3, #1
  400c98:	f851 2f04 	ldr.w	r2, [r1, #4]!
  400c9c:	2b0c      	cmp	r3, #12
  400c9e:	66c2      	str	r2, [r0, #108]	; 0x6c
  400ca0:	d1f8      	bne.n	400c94 <_afec_init+0x4c>
  400ca2:	2000      	movs	r0, #0
  400ca4:	bd30      	pop	{r4, r5, pc}
  400ca6:	bf00      	nop
  400ca8:	0040420c 	.word	0x0040420c

00400cac <_afec_interrupt_handler>:
  400cac:	6942      	ldr	r2, [r0, #20]
  400cae:	b573      	push	{r0, r1, r4, r5, r6, lr}
  400cb0:	6b11      	ldr	r1, [r2, #48]	; 0x30
  400cb2:	4605      	mov	r5, r0
  400cb4:	6ad3      	ldr	r3, [r2, #44]	; 0x2c
  400cb6:	400b      	ands	r3, r1
  400cb8:	9301      	str	r3, [sp, #4]
  400cba:	9b01      	ldr	r3, [sp, #4]
  400cbc:	015a      	lsls	r2, r3, #5
  400cbe:	d502      	bpl.n	400cc6 <_afec_interrupt_handler+0x1a>
  400cc0:	6803      	ldr	r3, [r0, #0]
  400cc2:	2100      	movs	r1, #0
  400cc4:	4798      	blx	r3
  400cc6:	9b01      	ldr	r3, [sp, #4]
  400cc8:	019b      	lsls	r3, r3, #6
  400cca:	d503      	bpl.n	400cd4 <_afec_interrupt_handler+0x28>
  400ccc:	686b      	ldr	r3, [r5, #4]
  400cce:	2100      	movs	r1, #0
  400cd0:	4628      	mov	r0, r5
  400cd2:	4798      	blx	r3
  400cd4:	9b01      	ldr	r3, [sp, #4]
  400cd6:	2601      	movs	r6, #1
  400cd8:	f3c3 030b 	ubfx	r3, r3, #0, #12
  400cdc:	9301      	str	r3, [sp, #4]
  400cde:	9c01      	ldr	r4, [sp, #4]
  400ce0:	fab4 f484 	clz	r4, r4
  400ce4:	f1c4 0420 	rsb	r4, r4, #32
  400ce8:	b2e4      	uxtb	r4, r4
  400cea:	b90c      	cbnz	r4, 400cf0 <_afec_interrupt_handler+0x44>
  400cec:	b002      	add	sp, #8
  400cee:	bd70      	pop	{r4, r5, r6, pc}
  400cf0:	3c01      	subs	r4, #1
  400cf2:	696b      	ldr	r3, [r5, #20]
  400cf4:	4628      	mov	r0, r5
  400cf6:	b2e4      	uxtb	r4, r4
  400cf8:	665c      	str	r4, [r3, #100]	; 0x64
  400cfa:	4621      	mov	r1, r4
  400cfc:	6e9a      	ldr	r2, [r3, #104]	; 0x68
  400cfe:	fa06 f404 	lsl.w	r4, r6, r4
  400d02:	68ab      	ldr	r3, [r5, #8]
  400d04:	b292      	uxth	r2, r2
  400d06:	4798      	blx	r3
  400d08:	9b01      	ldr	r3, [sp, #4]
  400d0a:	ea23 0404 	bic.w	r4, r3, r4
  400d0e:	9401      	str	r4, [sp, #4]
  400d10:	9c01      	ldr	r4, [sp, #4]
  400d12:	fab4 f484 	clz	r4, r4
  400d16:	f1c4 0420 	rsb	r4, r4, #32
  400d1a:	b2e4      	uxtb	r4, r4
  400d1c:	e7e5      	b.n	400cea <_afec_interrupt_handler+0x3e>
	...

00400d20 <AFEC0_Handler>:
  400d20:	4b01      	ldr	r3, [pc, #4]	; (400d28 <AFEC0_Handler+0x8>)
  400d22:	6818      	ldr	r0, [r3, #0]
  400d24:	4b01      	ldr	r3, [pc, #4]	; (400d2c <AFEC0_Handler+0xc>)
  400d26:	4718      	bx	r3
  400d28:	204002e4 	.word	0x204002e4
  400d2c:	00400cad 	.word	0x00400cad

00400d30 <AFEC1_Handler>:
  400d30:	4b01      	ldr	r3, [pc, #4]	; (400d38 <AFEC1_Handler+0x8>)
  400d32:	6858      	ldr	r0, [r3, #4]
  400d34:	4b01      	ldr	r3, [pc, #4]	; (400d3c <AFEC1_Handler+0xc>)
  400d36:	4718      	bx	r3
  400d38:	204002e4 	.word	0x204002e4
  400d3c:	00400cad 	.word	0x00400cad

00400d40 <_adc_async_init>:
  400d40:	b570      	push	{r4, r5, r6, lr}
  400d42:	460c      	mov	r4, r1
  400d44:	4b1e      	ldr	r3, [pc, #120]	; (400dc0 <_adc_async_init+0x80>)
  400d46:	4605      	mov	r5, r0
  400d48:	4608      	mov	r0, r1
  400d4a:	4798      	blx	r3
  400d4c:	4b1d      	ldr	r3, [pc, #116]	; (400dc4 <_adc_async_init+0x84>)
  400d4e:	4601      	mov	r1, r0
  400d50:	4620      	mov	r0, r4
  400d52:	4798      	blx	r3
  400d54:	4606      	mov	r6, r0
  400d56:	b980      	cbnz	r0, 400d7a <_adc_async_init+0x3a>
  400d58:	4b1b      	ldr	r3, [pc, #108]	; (400dc8 <_adc_async_init+0x88>)
  400d5a:	616c      	str	r4, [r5, #20]
  400d5c:	429c      	cmp	r4, r3
  400d5e:	d10e      	bne.n	400d7e <_adc_async_init+0x3e>
  400d60:	4b1a      	ldr	r3, [pc, #104]	; (400dcc <_adc_async_init+0x8c>)
  400d62:	201d      	movs	r0, #29
  400d64:	601d      	str	r5, [r3, #0]
  400d66:	4b1a      	ldr	r3, [pc, #104]	; (400dd0 <_adc_async_init+0x90>)
  400d68:	4798      	blx	r3
  400d6a:	6969      	ldr	r1, [r5, #20]
  400d6c:	4b16      	ldr	r3, [pc, #88]	; (400dc8 <_adc_async_init+0x88>)
  400d6e:	4299      	cmp	r1, r3
  400d70:	d00e      	beq.n	400d90 <_adc_async_init+0x50>
  400d72:	f503 3320 	add.w	r3, r3, #163840	; 0x28000
  400d76:	4299      	cmp	r1, r3
  400d78:	d01f      	beq.n	400dba <_adc_async_init+0x7a>
  400d7a:	4630      	mov	r0, r6
  400d7c:	bd70      	pop	{r4, r5, r6, pc}
  400d7e:	4b15      	ldr	r3, [pc, #84]	; (400dd4 <_adc_async_init+0x94>)
  400d80:	429c      	cmp	r4, r3
  400d82:	bf05      	ittet	eq
  400d84:	4b11      	ldreq	r3, [pc, #68]	; (400dcc <_adc_async_init+0x8c>)
  400d86:	2028      	moveq	r0, #40	; 0x28
  400d88:	f04f 30ff 	movne.w	r0, #4294967295
  400d8c:	605d      	streq	r5, [r3, #4]
  400d8e:	e7ea      	b.n	400d66 <_adc_async_init+0x26>
  400d90:	231d      	movs	r3, #29
  400d92:	f003 001d 	and.w	r0, r3, #29
  400d96:	095b      	lsrs	r3, r3, #5
  400d98:	2201      	movs	r2, #1
  400d9a:	009b      	lsls	r3, r3, #2
  400d9c:	4082      	lsls	r2, r0
  400d9e:	480a      	ldr	r0, [pc, #40]	; (400dc8 <_adc_async_init+0x88>)
  400da0:	f103 4360 	add.w	r3, r3, #3758096384	; 0xe0000000
  400da4:	4281      	cmp	r1, r0
  400da6:	f503 4361 	add.w	r3, r3, #57600	; 0xe100
  400daa:	f8c3 2180 	str.w	r2, [r3, #384]	; 0x180
  400dae:	d002      	beq.n	400db6 <_adc_async_init+0x76>
  400db0:	4808      	ldr	r0, [pc, #32]	; (400dd4 <_adc_async_init+0x94>)
  400db2:	4281      	cmp	r1, r0
  400db4:	d1e1      	bne.n	400d7a <_adc_async_init+0x3a>
  400db6:	601a      	str	r2, [r3, #0]
  400db8:	e7df      	b.n	400d7a <_adc_async_init+0x3a>
  400dba:	2328      	movs	r3, #40	; 0x28
  400dbc:	e7e9      	b.n	400d92 <_adc_async_init+0x52>
  400dbe:	bf00      	nop
  400dc0:	00400c39 	.word	0x00400c39
  400dc4:	00400c49 	.word	0x00400c49
  400dc8:	4003c000 	.word	0x4003c000
  400dcc:	204002e4 	.word	0x204002e4
  400dd0:	00400c11 	.word	0x00400c11
  400dd4:	40064000 	.word	0x40064000

00400dd8 <_adc_async_get_data_size>:
  400dd8:	2002      	movs	r0, #2
  400dda:	4770      	bx	lr

00400ddc <_irq_set>:
  400ddc:	b243      	sxtb	r3, r0
  400dde:	2b00      	cmp	r3, #0
  400de0:	db09      	blt.n	400df6 <_irq_set+0x1a>
  400de2:	2201      	movs	r2, #1
  400de4:	095b      	lsrs	r3, r3, #5
  400de6:	f000 001f 	and.w	r0, r0, #31
  400dea:	3340      	adds	r3, #64	; 0x40
  400dec:	fa02 f000 	lsl.w	r0, r2, r0
  400df0:	4a01      	ldr	r2, [pc, #4]	; (400df8 <_irq_set+0x1c>)
  400df2:	f842 0023 	str.w	r0, [r2, r3, lsl #2]
  400df6:	4770      	bx	lr
  400df8:	e000e100 	.word	0xe000e100

00400dfc <_get_cycles_for_ms>:
  400dfc:	4b01      	ldr	r3, [pc, #4]	; (400e04 <_get_cycles_for_ms+0x8>)
  400dfe:	4358      	muls	r0, r3
  400e00:	4770      	bx	lr
  400e02:	bf00      	nop
  400e04:	000493e0 	.word	0x000493e0

00400e08 <_delay_cycles>:
  400e08:	3901      	subs	r1, #1
  400e0a:	d8fd      	bhi.n	400e08 <_delay_cycles>
  400e0c:	4770      	bx	lr
	...

00400e10 <_init_chip>:
  400e10:	b507      	push	{r0, r1, r2, lr}
  400e12:	4b0e      	ldr	r3, [pc, #56]	; (400e4c <_init_chip+0x3c>)
  400e14:	a801      	add	r0, sp, #4
  400e16:	4798      	blx	r3
  400e18:	4a0d      	ldr	r2, [pc, #52]	; (400e50 <_init_chip+0x40>)
  400e1a:	f8d2 3088 	ldr.w	r3, [r2, #136]	; 0x88
  400e1e:	f443 0370 	orr.w	r3, r3, #15728640	; 0xf00000
  400e22:	f8c2 3088 	str.w	r3, [r2, #136]	; 0x88
  400e26:	f3bf 8f4f 	dsb	sy
  400e2a:	f3bf 8f6f 	isb	sy
  400e2e:	4b09      	ldr	r3, [pc, #36]	; (400e54 <_init_chip+0x44>)
  400e30:	a801      	add	r0, sp, #4
  400e32:	4798      	blx	r3
  400e34:	4a08      	ldr	r2, [pc, #32]	; (400e58 <_init_chip+0x48>)
  400e36:	6813      	ldr	r3, [r2, #0]
  400e38:	f423 6370 	bic.w	r3, r3, #3840	; 0xf00
  400e3c:	f443 63c0 	orr.w	r3, r3, #1536	; 0x600
  400e40:	6013      	str	r3, [r2, #0]
  400e42:	4b06      	ldr	r3, [pc, #24]	; (400e5c <_init_chip+0x4c>)
  400e44:	4798      	blx	r3
  400e46:	b003      	add	sp, #12
  400e48:	f85d fb04 	ldr.w	pc, [sp], #4
  400e4c:	00400731 	.word	0x00400731
  400e50:	e000ed00 	.word	0xe000ed00
  400e54:	0040073f 	.word	0x0040073f
  400e58:	400e0c00 	.word	0x400e0c00
  400e5c:	0040116d 	.word	0x0040116d

00400e60 <_flash_init>:
  400e60:	4b07      	ldr	r3, [pc, #28]	; (400e80 <_flash_init+0x20>)
  400e62:	2240      	movs	r2, #64	; 0x40
  400e64:	6101      	str	r1, [r0, #16]
  400e66:	6018      	str	r0, [r3, #0]
  400e68:	4b06      	ldr	r3, [pc, #24]	; (400e84 <_flash_init+0x24>)
  400e6a:	f8c3 2080 	str.w	r2, [r3, #128]	; 0x80
  400e6e:	f3bf 8f4f 	dsb	sy
  400e72:	f3bf 8f6f 	isb	sy
  400e76:	2000      	movs	r0, #0
  400e78:	f8c3 2180 	str.w	r2, [r3, #384]	; 0x180
  400e7c:	601a      	str	r2, [r3, #0]
  400e7e:	4770      	bx	lr
  400e80:	204002ec 	.word	0x204002ec
  400e84:	e000e100 	.word	0xe000e100

00400e88 <EFC_Handler>:
  400e88:	4b04      	ldr	r3, [pc, #16]	; (400e9c <EFC_Handler+0x14>)
  400e8a:	6818      	ldr	r0, [r3, #0]
  400e8c:	6903      	ldr	r3, [r0, #16]
  400e8e:	689b      	ldr	r3, [r3, #8]
  400e90:	07db      	lsls	r3, r3, #31
  400e92:	d502      	bpl.n	400e9a <EFC_Handler+0x12>
  400e94:	6803      	ldr	r3, [r0, #0]
  400e96:	b103      	cbz	r3, 400e9a <EFC_Handler+0x12>
  400e98:	4718      	bx	r3
  400e9a:	4770      	bx	lr
  400e9c:	204002ec 	.word	0x204002ec

00400ea0 <_can_async_init>:
  400ea0:	698b      	ldr	r3, [r1, #24]
  400ea2:	f043 0301 	orr.w	r3, r3, #1
  400ea6:	b510      	push	{r4, lr}
  400ea8:	6001      	str	r1, [r0, #0]
  400eaa:	618b      	str	r3, [r1, #24]
  400eac:	698b      	ldr	r3, [r1, #24]
  400eae:	07db      	lsls	r3, r3, #31
  400eb0:	d5fc      	bpl.n	400eac <_can_async_init+0xc>
  400eb2:	698b      	ldr	r3, [r1, #24]
  400eb4:	f043 0302 	orr.w	r3, r3, #2
  400eb8:	618b      	str	r3, [r1, #24]
  400eba:	4b2b      	ldr	r3, [pc, #172]	; (400f68 <_can_async_init+0xc8>)
  400ebc:	4299      	cmp	r1, r3
  400ebe:	d145      	bne.n	400f4c <_can_async_init+0xac>
  400ec0:	4b2a      	ldr	r3, [pc, #168]	; (400f6c <_can_async_init+0xcc>)
  400ec2:	2400      	movs	r4, #0
  400ec4:	4a2a      	ldr	r2, [pc, #168]	; (400f70 <_can_async_init+0xd0>)
  400ec6:	6183      	str	r3, [r0, #24]
  400ec8:	698b      	ldr	r3, [r1, #24]
  400eca:	618b      	str	r3, [r1, #24]
  400ecc:	f640 5304 	movw	r3, #3332	; 0xd04
  400ed0:	61cb      	str	r3, [r1, #28]
  400ed2:	f44f 6354 	mov.w	r3, #3392	; 0xd40
  400ed6:	60cb      	str	r3, [r1, #12]
  400ed8:	f640 330b 	movw	r3, #2827	; 0xb0b
  400edc:	648b      	str	r3, [r1, #72]	; 0x48
  400ede:	4b25      	ldr	r3, [pc, #148]	; (400f74 <_can_async_init+0xd4>)
  400ee0:	b29b      	uxth	r3, r3
  400ee2:	f443 23c0 	orr.w	r3, r3, #393216	; 0x60000
  400ee6:	f8c1 30a0 	str.w	r3, [r1, #160]	; 0xa0
  400eea:	4b23      	ldr	r3, [pc, #140]	; (400f78 <_can_async_init+0xd8>)
  400eec:	f8c1 40bc 	str.w	r4, [r1, #188]	; 0xbc
  400ef0:	b29b      	uxth	r3, r3
  400ef2:	f8c1 40c8 	str.w	r4, [r1, #200]	; 0xc8
  400ef6:	f043 63c0 	orr.w	r3, r3, #100663296	; 0x6000000
  400efa:	f8c1 30c0 	str.w	r3, [r1, #192]	; 0xc0
  400efe:	b293      	uxth	r3, r2
  400f00:	f443 3300 	orr.w	r3, r3, #131072	; 0x20000
  400f04:	f8c1 30f0 	str.w	r3, [r1, #240]	; 0xf0
  400f08:	232b      	movs	r3, #43	; 0x2b
  400f0a:	f8c1 3080 	str.w	r3, [r1, #128]	; 0x80
  400f0e:	f102 0310 	add.w	r3, r2, #16
  400f12:	b29b      	uxth	r3, r3
  400f14:	f443 3300 	orr.w	r3, r3, #131072	; 0x20000
  400f18:	f8c1 3084 	str.w	r3, [r1, #132]	; 0x84
  400f1c:	f102 0318 	add.w	r3, r2, #24
  400f20:	b29b      	uxth	r3, r3
  400f22:	f443 3300 	orr.w	r3, r3, #131072	; 0x20000
  400f26:	f8c1 3088 	str.w	r3, [r1, #136]	; 0x88
  400f2a:	f8c1 4090 	str.w	r4, [r1, #144]	; 0x90
  400f2e:	4b13      	ldr	r3, [pc, #76]	; (400f7c <_can_async_init+0xdc>)
  400f30:	6290      	str	r0, [r2, #40]	; 0x28
  400f32:	2208      	movs	r2, #8
  400f34:	f8c3 2084 	str.w	r2, [r3, #132]	; 0x84
  400f38:	f3bf 8f4f 	dsb	sy
  400f3c:	f3bf 8f6f 	isb	sy
  400f40:	f8c3 2184 	str.w	r2, [r3, #388]	; 0x184
  400f44:	605a      	str	r2, [r3, #4]
  400f46:	2201      	movs	r2, #1
  400f48:	6803      	ldr	r3, [r0, #0]
  400f4a:	65da      	str	r2, [r3, #92]	; 0x5c
  400f4c:	6803      	ldr	r3, [r0, #0]
  400f4e:	699a      	ldr	r2, [r3, #24]
  400f50:	f022 0202 	bic.w	r2, r2, #2
  400f54:	619a      	str	r2, [r3, #24]
  400f56:	699a      	ldr	r2, [r3, #24]
  400f58:	f022 0201 	bic.w	r2, r2, #1
  400f5c:	619a      	str	r2, [r3, #24]
  400f5e:	6998      	ldr	r0, [r3, #24]
  400f60:	f010 0001 	ands.w	r0, r0, #1
  400f64:	d1fb      	bne.n	400f5e <_can_async_init+0xbe>
  400f66:	bd10      	pop	{r4, pc}
  400f68:	40030000 	.word	0x40030000
  400f6c:	20400000 	.word	0x20400000
  400f70:	204002f0 	.word	0x204002f0
  400f74:	2040067c 	.word	0x2040067c
  400f78:	204006dc 	.word	0x204006dc
  400f7c:	e000e100 	.word	0xe000e100

00400f80 <_can_async_enable>:
  400f80:	6802      	ldr	r2, [r0, #0]
  400f82:	2000      	movs	r0, #0
  400f84:	6993      	ldr	r3, [r2, #24]
  400f86:	f023 0301 	bic.w	r3, r3, #1
  400f8a:	6193      	str	r3, [r2, #24]
  400f8c:	4770      	bx	lr
	...

00400f90 <_can_async_read>:
  400f90:	6802      	ldr	r2, [r0, #0]
  400f92:	460b      	mov	r3, r1
  400f94:	f8d2 10a4 	ldr.w	r1, [r2, #164]	; 0xa4
  400f98:	0649      	lsls	r1, r1, #25
  400f9a:	b5f0      	push	{r4, r5, r6, r7, lr}
  400f9c:	4605      	mov	r5, r0
  400f9e:	b085      	sub	sp, #20
  400fa0:	d047      	beq.n	401032 <_can_async_read+0xa2>
  400fa2:	4927      	ldr	r1, [pc, #156]	; (401040 <_can_async_read+0xb0>)
  400fa4:	f8d2 40a4 	ldr.w	r4, [r2, #164]	; 0xa4
  400fa8:	428a      	cmp	r2, r1
  400faa:	d145      	bne.n	401038 <_can_async_read+0xa8>
  400fac:	f3c4 2405 	ubfx	r4, r4, #8, #6
  400fb0:	4a24      	ldr	r2, [pc, #144]	; (401044 <_can_async_read+0xb4>)
  400fb2:	0121      	lsls	r1, r4, #4
  400fb4:	188f      	adds	r7, r1, r2
  400fb6:	d03f      	beq.n	401038 <_can_async_read+0xa8>
  400fb8:	5888      	ldr	r0, [r1, r2]
  400fba:	f3c0 7080 	ubfx	r0, r0, #30, #1
  400fbe:	f010 0fff 	tst.w	r0, #255	; 0xff
  400fc2:	d030      	beq.n	401026 <_can_async_read+0x96>
  400fc4:	7358      	strb	r0, [r3, #13]
  400fc6:	5888      	ldr	r0, [r1, r2]
  400fc8:	f3c0 001c 	ubfx	r0, r0, #0, #29
  400fcc:	588a      	ldr	r2, [r1, r2]
  400fce:	46ee      	mov	lr, sp
  400fd0:	6018      	str	r0, [r3, #0]
  400fd2:	f3c2 7240 	ubfx	r2, r2, #29, #1
  400fd6:	f012 0fff 	tst.w	r2, #255	; 0xff
  400fda:	bf18      	it	ne
  400fdc:	711a      	strbne	r2, [r3, #4]
  400fde:	4a1a      	ldr	r2, [pc, #104]	; (401048 <_can_async_read+0xb8>)
  400fe0:	f102 0c10 	add.w	ip, r2, #16
  400fe4:	6810      	ldr	r0, [r2, #0]
  400fe6:	3208      	adds	r2, #8
  400fe8:	f852 1c04 	ldr.w	r1, [r2, #-4]
  400fec:	4676      	mov	r6, lr
  400fee:	4562      	cmp	r2, ip
  400ff0:	c603      	stmia	r6!, {r0, r1}
  400ff2:	46b6      	mov	lr, r6
  400ff4:	d1f6      	bne.n	400fe4 <_can_async_read+0x54>
  400ff6:	687a      	ldr	r2, [r7, #4]
  400ff8:	a904      	add	r1, sp, #16
  400ffa:	6898      	ldr	r0, [r3, #8]
  400ffc:	f3c2 4203 	ubfx	r2, r2, #16, #4
  401000:	440a      	add	r2, r1
  401002:	f107 0108 	add.w	r1, r7, #8
  401006:	f812 2c10 	ldrb.w	r2, [r2, #-16]
  40100a:	731a      	strb	r2, [r3, #12]
  40100c:	4b0f      	ldr	r3, [pc, #60]	; (40104c <_can_async_read+0xbc>)
  40100e:	4798      	blx	r3
  401010:	682a      	ldr	r2, [r5, #0]
  401012:	2000      	movs	r0, #0
  401014:	f8d2 30a8 	ldr.w	r3, [r2, #168]	; 0xa8
  401018:	f023 033f 	bic.w	r3, r3, #63	; 0x3f
  40101c:	431c      	orrs	r4, r3
  40101e:	f8c2 40a8 	str.w	r4, [r2, #168]	; 0xa8
  401022:	b005      	add	sp, #20
  401024:	bdf0      	pop	{r4, r5, r6, r7, pc}
  401026:	2000      	movs	r0, #0
  401028:	7358      	strb	r0, [r3, #13]
  40102a:	5888      	ldr	r0, [r1, r2]
  40102c:	f3c0 408a 	ubfx	r0, r0, #18, #11
  401030:	e7cc      	b.n	400fcc <_can_async_read+0x3c>
  401032:	f06f 0009 	mvn.w	r0, #9
  401036:	e7f4      	b.n	401022 <_can_async_read+0x92>
  401038:	f06f 001b 	mvn.w	r0, #27
  40103c:	e7f1      	b.n	401022 <_can_async_read+0x92>
  40103e:	bf00      	nop
  401040:	40030000 	.word	0x40030000
  401044:	2040067c 	.word	0x2040067c
  401048:	004042d4 	.word	0x004042d4
  40104c:	0040193d 	.word	0x0040193d

00401050 <_can_async_set_irq_state>:
  401050:	b931      	cbnz	r1, 401060 <_can_async_set_irq_state+0x10>
  401052:	6801      	ldr	r1, [r0, #0]
  401054:	6d4b      	ldr	r3, [r1, #84]	; 0x54
  401056:	f023 0301 	bic.w	r3, r3, #1
  40105a:	431a      	orrs	r2, r3
  40105c:	654a      	str	r2, [r1, #84]	; 0x54
  40105e:	4770      	bx	lr
  401060:	2901      	cmp	r1, #1
  401062:	d10b      	bne.n	40107c <_can_async_set_irq_state+0x2c>
  401064:	6801      	ldr	r1, [r0, #0]
  401066:	6d4b      	ldr	r3, [r1, #84]	; 0x54
  401068:	f423 7300 	bic.w	r3, r3, #512	; 0x200
  40106c:	ea43 2242 	orr.w	r2, r3, r2, lsl #9
  401070:	f04f 33ff 	mov.w	r3, #4294967295
  401074:	654a      	str	r2, [r1, #84]	; 0x54
  401076:	f8c1 30e0 	str.w	r3, [r1, #224]	; 0xe0
  40107a:	4770      	bx	lr
  40107c:	2902      	cmp	r1, #2
  40107e:	d106      	bne.n	40108e <_can_async_set_irq_state+0x3e>
  401080:	6802      	ldr	r2, [r0, #0]
  401082:	6d53      	ldr	r3, [r2, #84]	; 0x54
  401084:	f423 73ff 	bic.w	r3, r3, #510	; 0x1fe
  401088:	059b      	lsls	r3, r3, #22
  40108a:	0d9b      	lsrs	r3, r3, #22
  40108c:	6553      	str	r3, [r2, #84]	; 0x54
  40108e:	4770      	bx	lr

00401090 <_can_async_set_filter>:
  401090:	b530      	push	{r4, r5, lr}
  401092:	6980      	ldr	r0, [r0, #24]
  401094:	b9ea      	cbnz	r2, 4010d2 <_can_async_set_filter+0x42>
  401096:	b209      	sxth	r1, r1
  401098:	68c2      	ldr	r2, [r0, #12]
  40109a:	b91b      	cbnz	r3, 4010a4 <_can_async_set_filter+0x14>
  40109c:	f842 3021 	str.w	r3, [r2, r1, lsl #2]
  4010a0:	2000      	movs	r0, #0
  4010a2:	bd30      	pop	{r4, r5, pc}
  4010a4:	6858      	ldr	r0, [r3, #4]
  4010a6:	f842 0021 	str.w	r0, [r2, r1, lsl #2]
  4010aa:	6818      	ldr	r0, [r3, #0]
  4010ac:	f852 3021 	ldr.w	r3, [r2, r1, lsl #2]
  4010b0:	f360 431a 	bfi	r3, r0, #16, #11
  4010b4:	2002      	movs	r0, #2
  4010b6:	f842 3021 	str.w	r3, [r2, r1, lsl #2]
  4010ba:	f852 3021 	ldr.w	r3, [r2, r1, lsl #2]
  4010be:	f360 739f 	bfi	r3, r0, #30, #2
  4010c2:	2001      	movs	r0, #1
  4010c4:	f842 3021 	str.w	r3, [r2, r1, lsl #2]
  4010c8:	f852 3021 	ldr.w	r3, [r2, r1, lsl #2]
  4010cc:	f360 63dd 	bfi	r3, r0, #27, #3
  4010d0:	e7e4      	b.n	40109c <_can_async_set_filter+0xc>
  4010d2:	2a01      	cmp	r2, #1
  4010d4:	d1e4      	bne.n	4010a0 <_can_async_set_filter+0x10>
  4010d6:	b209      	sxth	r1, r1
  4010d8:	6900      	ldr	r0, [r0, #16]
  4010da:	eb00 04c1 	add.w	r4, r0, r1, lsl #3
  4010de:	b913      	cbnz	r3, 4010e6 <_can_async_set_filter+0x56>
  4010e0:	f840 3031 	str.w	r3, [r0, r1, lsl #3]
  4010e4:	e7dc      	b.n	4010a0 <_can_async_set_filter+0x10>
  4010e6:	681d      	ldr	r5, [r3, #0]
  4010e8:	f840 5031 	str.w	r5, [r0, r1, lsl #3]
  4010ec:	f850 5031 	ldr.w	r5, [r0, r1, lsl #3]
  4010f0:	f362 755f 	bfi	r5, r2, #29, #3
  4010f4:	2202      	movs	r2, #2
  4010f6:	f840 5031 	str.w	r5, [r0, r1, lsl #3]
  4010fa:	685b      	ldr	r3, [r3, #4]
  4010fc:	6063      	str	r3, [r4, #4]
  4010fe:	6863      	ldr	r3, [r4, #4]
  401100:	f362 739f 	bfi	r3, r2, #30, #2
  401104:	6063      	str	r3, [r4, #4]
  401106:	e7cb      	b.n	4010a0 <_can_async_set_filter+0x10>

00401108 <MCAN0_INT0_Handler>:
  401108:	b538      	push	{r3, r4, r5, lr}
  40110a:	4b17      	ldr	r3, [pc, #92]	; (401168 <MCAN0_INT0_Handler+0x60>)
  40110c:	6a9c      	ldr	r4, [r3, #40]	; 0x28
  40110e:	6823      	ldr	r3, [r4, #0]
  401110:	6d1d      	ldr	r5, [r3, #80]	; 0x50
  401112:	07e8      	lsls	r0, r5, #31
  401114:	d502      	bpl.n	40111c <MCAN0_INT0_Handler+0x14>
  401116:	68a3      	ldr	r3, [r4, #8]
  401118:	4620      	mov	r0, r4
  40111a:	4798      	blx	r3
  40111c:	05aa      	lsls	r2, r5, #22
  40111e:	d502      	bpl.n	401126 <MCAN0_INT0_Handler+0x1e>
  401120:	6863      	ldr	r3, [r4, #4]
  401122:	4620      	mov	r0, r4
  401124:	4798      	blx	r3
  401126:	01ab      	lsls	r3, r5, #6
  401128:	d503      	bpl.n	401132 <MCAN0_INT0_Handler+0x2a>
  40112a:	68e3      	ldr	r3, [r4, #12]
  40112c:	2103      	movs	r1, #3
  40112e:	4620      	mov	r0, r4
  401130:	4798      	blx	r3
  401132:	01e8      	lsls	r0, r5, #7
  401134:	d503      	bpl.n	40113e <MCAN0_INT0_Handler+0x36>
  401136:	68e3      	ldr	r3, [r4, #12]
  401138:	2100      	movs	r1, #0
  40113a:	4620      	mov	r0, r4
  40113c:	4798      	blx	r3
  40113e:	022a      	lsls	r2, r5, #8
  401140:	d509      	bpl.n	401156 <MCAN0_INT0_Handler+0x4e>
  401142:	6822      	ldr	r2, [r4, #0]
  401144:	4620      	mov	r0, r4
  401146:	68e3      	ldr	r3, [r4, #12]
  401148:	6c52      	ldr	r2, [r2, #68]	; 0x44
  40114a:	f012 0f20 	tst.w	r2, #32
  40114e:	bf14      	ite	ne
  401150:	2102      	movne	r1, #2
  401152:	2101      	moveq	r1, #1
  401154:	4798      	blx	r3
  401156:	072b      	lsls	r3, r5, #28
  401158:	d503      	bpl.n	401162 <MCAN0_INT0_Handler+0x5a>
  40115a:	68e3      	ldr	r3, [r4, #12]
  40115c:	2104      	movs	r1, #4
  40115e:	4620      	mov	r0, r4
  401160:	4798      	blx	r3
  401162:	6823      	ldr	r3, [r4, #0]
  401164:	651d      	str	r5, [r3, #80]	; 0x50
  401166:	bd38      	pop	{r3, r4, r5, pc}
  401168:	204002f0 	.word	0x204002f0

0040116c <_pmc_init>:
  40116c:	4b27      	ldr	r3, [pc, #156]	; (40120c <_pmc_init+0xa0>)
  40116e:	4a28      	ldr	r2, [pc, #160]	; (401210 <_pmc_init+0xa4>)
  401170:	6a19      	ldr	r1, [r3, #32]
  401172:	f021 0102 	bic.w	r1, r1, #2
  401176:	430a      	orrs	r2, r1
  401178:	621a      	str	r2, [r3, #32]
  40117a:	6e9a      	ldr	r2, [r3, #104]	; 0x68
  40117c:	07d1      	lsls	r1, r2, #31
  40117e:	d5fc      	bpl.n	40117a <_pmc_init+0xe>
  401180:	6a1a      	ldr	r2, [r3, #32]
  401182:	f042 729b 	orr.w	r2, r2, #20316160	; 0x1360000
  401186:	f442 3280 	orr.w	r2, r2, #65536	; 0x10000
  40118a:	621a      	str	r2, [r3, #32]
  40118c:	6a9a      	ldr	r2, [r3, #40]	; 0x28
  40118e:	f022 62ff 	bic.w	r2, r2, #133693440	; 0x7f80000
  401192:	f422 22e0 	bic.w	r2, r2, #458752	; 0x70000
  401196:	629a      	str	r2, [r3, #40]	; 0x28
  401198:	4a1e      	ldr	r2, [pc, #120]	; (401214 <_pmc_init+0xa8>)
  40119a:	629a      	str	r2, [r3, #40]	; 0x28
  40119c:	6e9a      	ldr	r2, [r3, #104]	; 0x68
  40119e:	0792      	lsls	r2, r2, #30
  4011a0:	d5fc      	bpl.n	40119c <_pmc_init+0x30>
  4011a2:	f44f 0271 	mov.w	r2, #15794176	; 0xf10000
  4011a6:	61da      	str	r2, [r3, #28]
  4011a8:	6e9a      	ldr	r2, [r3, #104]	; 0x68
  4011aa:	0650      	lsls	r0, r2, #25
  4011ac:	d5fc      	bpl.n	4011a8 <_pmc_init+0x3c>
  4011ae:	6b1a      	ldr	r2, [r3, #48]	; 0x30
  4011b0:	f442 5200 	orr.w	r2, r2, #8192	; 0x2000
  4011b4:	631a      	str	r2, [r3, #48]	; 0x30
  4011b6:	6e9a      	ldr	r2, [r3, #104]	; 0x68
  4011b8:	0711      	lsls	r1, r2, #28
  4011ba:	d5fc      	bpl.n	4011b6 <_pmc_init+0x4a>
  4011bc:	6b1a      	ldr	r2, [r3, #48]	; 0x30
  4011be:	f022 0270 	bic.w	r2, r2, #112	; 0x70
  4011c2:	631a      	str	r2, [r3, #48]	; 0x30
  4011c4:	6e9a      	ldr	r2, [r3, #104]	; 0x68
  4011c6:	0712      	lsls	r2, r2, #28
  4011c8:	d5fc      	bpl.n	4011c4 <_pmc_init+0x58>
  4011ca:	6b1a      	ldr	r2, [r3, #48]	; 0x30
  4011cc:	f422 7240 	bic.w	r2, r2, #768	; 0x300
  4011d0:	f442 7280 	orr.w	r2, r2, #256	; 0x100
  4011d4:	631a      	str	r2, [r3, #48]	; 0x30
  4011d6:	6e9a      	ldr	r2, [r3, #104]	; 0x68
  4011d8:	0710      	lsls	r0, r2, #28
  4011da:	d5fc      	bpl.n	4011d6 <_pmc_init+0x6a>
  4011dc:	6b1a      	ldr	r2, [r3, #48]	; 0x30
  4011de:	f022 0203 	bic.w	r2, r2, #3
  4011e2:	f042 0202 	orr.w	r2, r2, #2
  4011e6:	631a      	str	r2, [r3, #48]	; 0x30
  4011e8:	6e9a      	ldr	r2, [r3, #104]	; 0x68
  4011ea:	0711      	lsls	r1, r2, #28
  4011ec:	d5fc      	bpl.n	4011e8 <_pmc_init+0x7c>
  4011ee:	22b3      	movs	r2, #179	; 0xb3
  4011f0:	655a      	str	r2, [r3, #84]	; 0x54
  4011f2:	6e9a      	ldr	r2, [r3, #104]	; 0x68
  4011f4:	0492      	lsls	r2, r2, #18
  4011f6:	d5fc      	bpl.n	4011f2 <_pmc_init+0x86>
  4011f8:	f44f 5200 	mov.w	r2, #8192	; 0x2000
  4011fc:	601a      	str	r2, [r3, #0]
  4011fe:	f240 4201 	movw	r2, #1025	; 0x401
  401202:	639a      	str	r2, [r3, #56]	; 0x38
  401204:	2220      	movs	r2, #32
  401206:	601a      	str	r2, [r3, #0]
  401208:	4770      	bx	lr
  40120a:	bf00      	nop
  40120c:	400e0600 	.word	0x400e0600
  401210:	00373e01 	.word	0x00373e01
  401214:	20183f01 	.word	0x20183f01

00401218 <__NVIC_DisableIRQ>:
  401218:	2800      	cmp	r0, #0
  40121a:	db0d      	blt.n	401238 <__NVIC_DisableIRQ+0x20>
  40121c:	0943      	lsrs	r3, r0, #5
  40121e:	2201      	movs	r2, #1
  401220:	f000 001f 	and.w	r0, r0, #31
  401224:	3320      	adds	r3, #32
  401226:	fa02 f000 	lsl.w	r0, r2, r0
  40122a:	4a04      	ldr	r2, [pc, #16]	; (40123c <__NVIC_DisableIRQ+0x24>)
  40122c:	f842 0023 	str.w	r0, [r2, r3, lsl #2]
  401230:	f3bf 8f4f 	dsb	sy
  401234:	f3bf 8f6f 	isb	sy
  401238:	4770      	bx	lr
  40123a:	bf00      	nop
  40123c:	e000e100 	.word	0xe000e100

00401240 <_timer_init>:
  401240:	b510      	push	{r4, lr}
  401242:	4c1b      	ldr	r4, [pc, #108]	; (4012b0 <_timer_init+0x70>)
  401244:	6823      	ldr	r3, [r4, #0]
  401246:	4299      	cmp	r1, r3
  401248:	d12f      	bne.n	4012aa <_timer_init+0x6a>
  40124a:	68a3      	ldr	r3, [r4, #8]
  40124c:	60c1      	str	r1, [r0, #12]
  40124e:	041a      	lsls	r2, r3, #16
  401250:	bf48      	it	mi
  401252:	f443 2314 	orrmi.w	r3, r3, #606208	; 0x94000
  401256:	604b      	str	r3, [r1, #4]
  401258:	6963      	ldr	r3, [r4, #20]
  40125a:	614b      	str	r3, [r1, #20]
  40125c:	69a3      	ldr	r3, [r4, #24]
  40125e:	618b      	str	r3, [r1, #24]
  401260:	68e3      	ldr	r3, [r4, #12]
  401262:	630b      	str	r3, [r1, #48]	; 0x30
  401264:	69e3      	ldr	r3, [r4, #28]
  401266:	61cb      	str	r3, [r1, #28]
  401268:	2310      	movs	r3, #16
  40126a:	624b      	str	r3, [r1, #36]	; 0x24
  40126c:	6923      	ldr	r3, [r4, #16]
  40126e:	f8c1 30d8 	str.w	r3, [r1, #216]	; 0xd8
  401272:	4b10      	ldr	r3, [pc, #64]	; (4012b4 <_timer_init+0x74>)
  401274:	4299      	cmp	r1, r3
  401276:	bf04      	itt	eq
  401278:	4b0f      	ldreq	r3, [pc, #60]	; (4012b8 <_timer_init+0x78>)
  40127a:	6018      	streq	r0, [r3, #0]
  40127c:	4b0f      	ldr	r3, [pc, #60]	; (4012bc <_timer_init+0x7c>)
  40127e:	f994 0004 	ldrsb.w	r0, [r4, #4]
  401282:	4798      	blx	r3
  401284:	f994 3004 	ldrsb.w	r3, [r4, #4]
  401288:	2b00      	cmp	r3, #0
  40128a:	db0c      	blt.n	4012a6 <_timer_init+0x66>
  40128c:	f003 011f 	and.w	r1, r3, #31
  401290:	095b      	lsrs	r3, r3, #5
  401292:	2201      	movs	r2, #1
  401294:	009b      	lsls	r3, r3, #2
  401296:	408a      	lsls	r2, r1
  401298:	f103 4360 	add.w	r3, r3, #3758096384	; 0xe0000000
  40129c:	f503 4361 	add.w	r3, r3, #57600	; 0xe100
  4012a0:	f8c3 2180 	str.w	r2, [r3, #384]	; 0x180
  4012a4:	601a      	str	r2, [r3, #0]
  4012a6:	2000      	movs	r0, #0
  4012a8:	bd10      	pop	{r4, pc}
  4012aa:	2300      	movs	r3, #0
  4012ac:	689b      	ldr	r3, [r3, #8]
  4012ae:	deff      	udf	#255	; 0xff
  4012b0:	20400014 	.word	0x20400014
  4012b4:	4000c000 	.word	0x4000c000
  4012b8:	2040031c 	.word	0x2040031c
  4012bc:	00401219 	.word	0x00401219

004012c0 <_timer_start>:
  4012c0:	68c3      	ldr	r3, [r0, #12]
  4012c2:	2205      	movs	r2, #5
  4012c4:	601a      	str	r2, [r3, #0]
  4012c6:	4770      	bx	lr

004012c8 <_timer_is_started>:
  4012c8:	68c3      	ldr	r3, [r0, #12]
  4012ca:	6a18      	ldr	r0, [r3, #32]
  4012cc:	f3c0 4000 	ubfx	r0, r0, #16, #1
  4012d0:	4770      	bx	lr
	...

004012d4 <_timer_set_irq>:
  4012d4:	4b05      	ldr	r3, [pc, #20]	; (4012ec <_timer_set_irq+0x18>)
  4012d6:	68c1      	ldr	r1, [r0, #12]
  4012d8:	681a      	ldr	r2, [r3, #0]
  4012da:	4291      	cmp	r1, r2
  4012dc:	d102      	bne.n	4012e4 <_timer_set_irq+0x10>
  4012de:	7918      	ldrb	r0, [r3, #4]
  4012e0:	4b03      	ldr	r3, [pc, #12]	; (4012f0 <_timer_set_irq+0x1c>)
  4012e2:	4718      	bx	r3
  4012e4:	2300      	movs	r3, #0
  4012e6:	791b      	ldrb	r3, [r3, #4]
  4012e8:	deff      	udf	#255	; 0xff
  4012ea:	bf00      	nop
  4012ec:	20400014 	.word	0x20400014
  4012f0:	00400ddd 	.word	0x00400ddd

004012f4 <_tc_get_timer>:
  4012f4:	2000      	movs	r0, #0
  4012f6:	4770      	bx	lr

004012f8 <TC0_Handler>:
  4012f8:	4b04      	ldr	r3, [pc, #16]	; (40130c <TC0_Handler+0x14>)
  4012fa:	6818      	ldr	r0, [r3, #0]
  4012fc:	68c3      	ldr	r3, [r0, #12]
  4012fe:	6a1b      	ldr	r3, [r3, #32]
  401300:	06db      	lsls	r3, r3, #27
  401302:	d501      	bpl.n	401308 <TC0_Handler+0x10>
  401304:	6803      	ldr	r3, [r0, #0]
  401306:	4718      	bx	r3
  401308:	4770      	bx	lr
  40130a:	bf00      	nop
  40130c:	2040031c 	.word	0x2040031c

00401310 <__NVIC_DisableIRQ>:
  401310:	2800      	cmp	r0, #0
  401312:	db0d      	blt.n	401330 <__NVIC_DisableIRQ+0x20>
  401314:	0943      	lsrs	r3, r0, #5
  401316:	2201      	movs	r2, #1
  401318:	f000 001f 	and.w	r0, r0, #31
  40131c:	3320      	adds	r3, #32
  40131e:	fa02 f000 	lsl.w	r0, r2, r0
  401322:	4a04      	ldr	r2, [pc, #16]	; (401334 <__NVIC_DisableIRQ+0x24>)
  401324:	f842 0023 	str.w	r0, [r2, r3, lsl #2]
  401328:	f3bf 8f4f 	dsb	sy
  40132c:	f3bf 8f6f 	isb	sy
  401330:	4770      	bx	lr
  401332:	bf00      	nop
  401334:	e000e100 	.word	0xe000e100

00401338 <_uart_interrupt_handler>:
  401338:	6983      	ldr	r3, [r0, #24]
  40133a:	4602      	mov	r2, r0
  40133c:	6959      	ldr	r1, [r3, #20]
  40133e:	0789      	lsls	r1, r1, #30
  401340:	d506      	bpl.n	401350 <_uart_interrupt_handler+0x18>
  401342:	6919      	ldr	r1, [r3, #16]
  401344:	0789      	lsls	r1, r1, #30
  401346:	d503      	bpl.n	401350 <_uart_interrupt_handler+0x18>
  401348:	2102      	movs	r1, #2
  40134a:	60d9      	str	r1, [r3, #12]
  40134c:	6803      	ldr	r3, [r0, #0]
  40134e:	4718      	bx	r3
  401350:	6959      	ldr	r1, [r3, #20]
  401352:	0588      	lsls	r0, r1, #22
  401354:	d508      	bpl.n	401368 <_uart_interrupt_handler+0x30>
  401356:	6919      	ldr	r1, [r3, #16]
  401358:	0589      	lsls	r1, r1, #22
  40135a:	d505      	bpl.n	401368 <_uart_interrupt_handler+0x30>
  40135c:	f44f 7100 	mov.w	r1, #512	; 0x200
  401360:	60d9      	str	r1, [r3, #12]
  401362:	6893      	ldr	r3, [r2, #8]
  401364:	4610      	mov	r0, r2
  401366:	e7f2      	b.n	40134e <_uart_interrupt_handler+0x16>
  401368:	6959      	ldr	r1, [r3, #20]
  40136a:	07c8      	lsls	r0, r1, #31
  40136c:	d510      	bpl.n	401390 <_uart_interrupt_handler+0x58>
  40136e:	6919      	ldr	r1, [r3, #16]
  401370:	07c9      	lsls	r1, r1, #31
  401372:	d50d      	bpl.n	401390 <_uart_interrupt_handler+0x58>
  401374:	6959      	ldr	r1, [r3, #20]
  401376:	f011 0fe0 	tst.w	r1, #224	; 0xe0
  40137a:	d004      	beq.n	401386 <_uart_interrupt_handler+0x4e>
  40137c:	699a      	ldr	r2, [r3, #24]
  40137e:	f44f 7280 	mov.w	r2, #256	; 0x100
  401382:	601a      	str	r2, [r3, #0]
  401384:	4770      	bx	lr
  401386:	6999      	ldr	r1, [r3, #24]
  401388:	4610      	mov	r0, r2
  40138a:	6853      	ldr	r3, [r2, #4]
  40138c:	b2c9      	uxtb	r1, r1
  40138e:	4718      	bx	r3
  401390:	6959      	ldr	r1, [r3, #20]
  401392:	f011 0fe0 	tst.w	r1, #224	; 0xe0
  401396:	d004      	beq.n	4013a2 <_uart_interrupt_handler+0x6a>
  401398:	f44f 7180 	mov.w	r1, #256	; 0x100
  40139c:	6019      	str	r1, [r3, #0]
  40139e:	68d3      	ldr	r3, [r2, #12]
  4013a0:	e7e0      	b.n	401364 <_uart_interrupt_handler+0x2c>
  4013a2:	4770      	bx	lr

004013a4 <_uart_get_hardware_index>:
  4013a4:	4b0e      	ldr	r3, [pc, #56]	; (4013e0 <_uart_get_hardware_index+0x3c>)
  4013a6:	4298      	cmp	r0, r3
  4013a8:	d012      	beq.n	4013d0 <_uart_get_hardware_index+0x2c>
  4013aa:	f503 7300 	add.w	r3, r3, #512	; 0x200
  4013ae:	4298      	cmp	r0, r3
  4013b0:	d010      	beq.n	4013d4 <_uart_get_hardware_index+0x30>
  4013b2:	f503 5380 	add.w	r3, r3, #4096	; 0x1000
  4013b6:	4298      	cmp	r0, r3
  4013b8:	d00e      	beq.n	4013d8 <_uart_get_hardware_index+0x34>
  4013ba:	f503 7300 	add.w	r3, r3, #512	; 0x200
  4013be:	4298      	cmp	r0, r3
  4013c0:	d00c      	beq.n	4013dc <_uart_get_hardware_index+0x38>
  4013c2:	f503 7300 	add.w	r3, r3, #512	; 0x200
  4013c6:	4298      	cmp	r0, r3
  4013c8:	bf0c      	ite	eq
  4013ca:	2004      	moveq	r0, #4
  4013cc:	20ff      	movne	r0, #255	; 0xff
  4013ce:	4770      	bx	lr
  4013d0:	2000      	movs	r0, #0
  4013d2:	4770      	bx	lr
  4013d4:	2001      	movs	r0, #1
  4013d6:	4770      	bx	lr
  4013d8:	2002      	movs	r0, #2
  4013da:	4770      	bx	lr
  4013dc:	2003      	movs	r0, #3
  4013de:	4770      	bx	lr
  4013e0:	400e0800 	.word	0x400e0800

004013e4 <_get_uart_index>:
  4013e4:	b508      	push	{r3, lr}
  4013e6:	4b03      	ldr	r3, [pc, #12]	; (4013f4 <_get_uart_index+0x10>)
  4013e8:	4798      	blx	r3
  4013ea:	1e83      	subs	r3, r0, #2
  4013ec:	4258      	negs	r0, r3
  4013ee:	4158      	adcs	r0, r3
  4013f0:	bd08      	pop	{r3, pc}
  4013f2:	bf00      	nop
  4013f4:	004013a5 	.word	0x004013a5

004013f8 <_usart_async_init>:
  4013f8:	b510      	push	{r4, lr}
  4013fa:	4b1f      	ldr	r3, [pc, #124]	; (401478 <_usart_async_init+0x80>)
  4013fc:	4604      	mov	r4, r0
  4013fe:	4608      	mov	r0, r1
  401400:	4798      	blx	r3
  401402:	4b1e      	ldr	r3, [pc, #120]	; (40147c <_usart_async_init+0x84>)
  401404:	220c      	movs	r2, #12
  401406:	f8c1 30e4 	str.w	r3, [r1, #228]	; 0xe4
  40140a:	23ac      	movs	r3, #172	; 0xac
  40140c:	600b      	str	r3, [r1, #0]
  40140e:	f44f 7380 	mov.w	r3, #256	; 0x100
  401412:	600b      	str	r3, [r1, #0]
  401414:	4b1a      	ldr	r3, [pc, #104]	; (401480 <_usart_async_init+0x88>)
  401416:	fb02 3000 	mla	r0, r2, r0, r3
  40141a:	6842      	ldr	r2, [r0, #4]
  40141c:	604a      	str	r2, [r1, #4]
  40141e:	6882      	ldr	r2, [r0, #8]
  401420:	620a      	str	r2, [r1, #32]
  401422:	4a18      	ldr	r2, [pc, #96]	; (401484 <_usart_async_init+0x8c>)
  401424:	61a1      	str	r1, [r4, #24]
  401426:	4291      	cmp	r1, r2
  401428:	461a      	mov	r2, r3
  40142a:	d11f      	bne.n	40146c <_usart_async_init+0x74>
  40142c:	4b16      	ldr	r3, [pc, #88]	; (401488 <_usart_async_init+0x90>)
  40142e:	601c      	str	r4, [r3, #0]
  401430:	4b16      	ldr	r3, [pc, #88]	; (40148c <_usart_async_init+0x94>)
  401432:	4608      	mov	r0, r1
  401434:	4798      	blx	r3
  401436:	2804      	cmp	r0, #4
  401438:	bf96      	itet	ls
  40143a:	1813      	addls	r3, r2, r0
  40143c:	24ff      	movhi	r4, #255	; 0xff
  40143e:	7e1c      	ldrbls	r4, [r3, #24]
  401440:	4b13      	ldr	r3, [pc, #76]	; (401490 <_usart_async_init+0x98>)
  401442:	b261      	sxtb	r1, r4
  401444:	4608      	mov	r0, r1
  401446:	4798      	blx	r3
  401448:	2900      	cmp	r1, #0
  40144a:	db0d      	blt.n	401468 <_usart_async_init+0x70>
  40144c:	2301      	movs	r3, #1
  40144e:	f004 041f 	and.w	r4, r4, #31
  401452:	fa03 f404 	lsl.w	r4, r3, r4
  401456:	094b      	lsrs	r3, r1, #5
  401458:	009b      	lsls	r3, r3, #2
  40145a:	f103 4360 	add.w	r3, r3, #3758096384	; 0xe0000000
  40145e:	f503 4361 	add.w	r3, r3, #57600	; 0xe100
  401462:	f8c3 4180 	str.w	r4, [r3, #384]	; 0x180
  401466:	601c      	str	r4, [r3, #0]
  401468:	2000      	movs	r0, #0
  40146a:	bd10      	pop	{r4, pc}
  40146c:	4b09      	ldr	r3, [pc, #36]	; (401494 <_usart_async_init+0x9c>)
  40146e:	4299      	cmp	r1, r3
  401470:	bf04      	itt	eq
  401472:	4b05      	ldreq	r3, [pc, #20]	; (401488 <_usart_async_init+0x90>)
  401474:	605c      	streq	r4, [r3, #4]
  401476:	e7db      	b.n	401430 <_usart_async_init+0x38>
  401478:	004013e5 	.word	0x004013e5
  40147c:	55415200 	.word	0x55415200
  401480:	004042e4 	.word	0x004042e4
  401484:	400e0a00 	.word	0x400e0a00
  401488:	20400320 	.word	0x20400320
  40148c:	004013a5 	.word	0x004013a5
  401490:	00401311 	.word	0x00401311
  401494:	400e1a00 	.word	0x400e1a00

00401498 <_usart_async_enable>:
  401498:	6983      	ldr	r3, [r0, #24]
  40149a:	2250      	movs	r2, #80	; 0x50
  40149c:	601a      	str	r2, [r3, #0]
  40149e:	4770      	bx	lr

004014a0 <_usart_async_write_byte>:
  4014a0:	6983      	ldr	r3, [r0, #24]
  4014a2:	61d9      	str	r1, [r3, #28]
  4014a4:	4770      	bx	lr

004014a6 <_usart_async_enable_byte_sent_irq>:
  4014a6:	6983      	ldr	r3, [r0, #24]
  4014a8:	2202      	movs	r2, #2
  4014aa:	609a      	str	r2, [r3, #8]
  4014ac:	4770      	bx	lr

004014ae <_usart_async_enable_tx_done_irq>:
  4014ae:	6983      	ldr	r3, [r0, #24]
  4014b0:	f44f 7200 	mov.w	r2, #512	; 0x200
  4014b4:	609a      	str	r2, [r3, #8]
  4014b6:	4770      	bx	lr

004014b8 <_usart_async_set_irq_state>:
  4014b8:	f021 0302 	bic.w	r3, r1, #2
  4014bc:	b1a2      	cbz	r2, 4014e8 <_usart_async_set_irq_state+0x30>
  4014be:	b933      	cbnz	r3, 4014ce <_usart_async_set_irq_state+0x16>
  4014c0:	6983      	ldr	r3, [r0, #24]
  4014c2:	2202      	movs	r2, #2
  4014c4:	609a      	str	r2, [r3, #8]
  4014c6:	f44f 7200 	mov.w	r2, #512	; 0x200
  4014ca:	609a      	str	r2, [r3, #8]
  4014cc:	4770      	bx	lr
  4014ce:	2901      	cmp	r1, #1
  4014d0:	d102      	bne.n	4014d8 <_usart_async_set_irq_state+0x20>
  4014d2:	6983      	ldr	r3, [r0, #24]
  4014d4:	6099      	str	r1, [r3, #8]
  4014d6:	4770      	bx	lr
  4014d8:	2903      	cmp	r1, #3
  4014da:	d119      	bne.n	401510 <_usart_async_set_irq_state+0x58>
  4014dc:	6982      	ldr	r2, [r0, #24]
  4014de:	6893      	ldr	r3, [r2, #8]
  4014e0:	f043 03e0 	orr.w	r3, r3, #224	; 0xe0
  4014e4:	6093      	str	r3, [r2, #8]
  4014e6:	4770      	bx	lr
  4014e8:	b933      	cbnz	r3, 4014f8 <_usart_async_set_irq_state+0x40>
  4014ea:	6983      	ldr	r3, [r0, #24]
  4014ec:	2202      	movs	r2, #2
  4014ee:	60da      	str	r2, [r3, #12]
  4014f0:	f44f 7200 	mov.w	r2, #512	; 0x200
  4014f4:	60da      	str	r2, [r3, #12]
  4014f6:	4770      	bx	lr
  4014f8:	2901      	cmp	r1, #1
  4014fa:	d102      	bne.n	401502 <_usart_async_set_irq_state+0x4a>
  4014fc:	6983      	ldr	r3, [r0, #24]
  4014fe:	60d9      	str	r1, [r3, #12]
  401500:	4770      	bx	lr
  401502:	2903      	cmp	r1, #3
  401504:	d104      	bne.n	401510 <_usart_async_set_irq_state+0x58>
  401506:	6982      	ldr	r2, [r0, #24]
  401508:	68d3      	ldr	r3, [r2, #12]
  40150a:	f043 03e0 	orr.w	r3, r3, #224	; 0xe0
  40150e:	60d3      	str	r3, [r2, #12]
  401510:	4770      	bx	lr

00401512 <_uart_get_usart_async>:
  401512:	2000      	movs	r0, #0
  401514:	4770      	bx	lr
	...

00401518 <UART1_Handler>:
  401518:	4b01      	ldr	r3, [pc, #4]	; (401520 <UART1_Handler+0x8>)
  40151a:	6818      	ldr	r0, [r3, #0]
  40151c:	4b01      	ldr	r3, [pc, #4]	; (401524 <UART1_Handler+0xc>)
  40151e:	4718      	bx	r3
  401520:	20400320 	.word	0x20400320
  401524:	00401339 	.word	0x00401339

00401528 <UART2_Handler>:
  401528:	4b01      	ldr	r3, [pc, #4]	; (401530 <UART2_Handler+0x8>)
  40152a:	6858      	ldr	r0, [r3, #4]
  40152c:	4b01      	ldr	r3, [pc, #4]	; (401534 <UART2_Handler+0xc>)
  40152e:	4718      	bx	r3
  401530:	20400320 	.word	0x20400320
  401534:	00401339 	.word	0x00401339

00401538 <current_time_ms>:
  401538:	4b03      	ldr	r3, [pc, #12]	; (401548 <current_time_ms+0x10>)
  40153a:	781a      	ldrb	r2, [r3, #0]
  40153c:	b112      	cbz	r2, 401544 <current_time_ms+0xc>
  40153e:	4b03      	ldr	r3, [pc, #12]	; (40154c <current_time_ms+0x14>)
  401540:	6818      	ldr	r0, [r3, #0]
  401542:	4770      	bx	lr
  401544:	6858      	ldr	r0, [r3, #4]
  401546:	4770      	bx	lr
  401548:	20400328 	.word	0x20400328
  40154c:	20400038 	.word	0x20400038

00401550 <TIMER_0_task1_cb>:
  401550:	4b07      	ldr	r3, [pc, #28]	; (401570 <TIMER_0_task1_cb+0x20>)
  401552:	781a      	ldrb	r2, [r3, #0]
  401554:	b13a      	cbz	r2, 401566 <TIMER_0_task1_cb+0x16>
  401556:	685a      	ldr	r2, [r3, #4]
  401558:	3202      	adds	r2, #2
  40155a:	605a      	str	r2, [r3, #4]
  40155c:	781a      	ldrb	r2, [r3, #0]
  40155e:	f082 0201 	eor.w	r2, r2, #1
  401562:	701a      	strb	r2, [r3, #0]
  401564:	4770      	bx	lr
  401566:	4903      	ldr	r1, [pc, #12]	; (401574 <TIMER_0_task1_cb+0x24>)
  401568:	680a      	ldr	r2, [r1, #0]
  40156a:	3202      	adds	r2, #2
  40156c:	600a      	str	r2, [r1, #0]
  40156e:	e7f5      	b.n	40155c <TIMER_0_task1_cb+0xc>
  401570:	20400328 	.word	0x20400328
  401574:	20400038 	.word	0x20400038

00401578 <rx_cb_UART_MC_2>:
  401578:	b573      	push	{r0, r1, r4, r5, r6, lr}
  40157a:	254f      	movs	r5, #79	; 0x4f
  40157c:	4e10      	ldr	r6, [pc, #64]	; (4015c0 <rx_cb_UART_MC_2+0x48>)
  40157e:	4c11      	ldr	r4, [pc, #68]	; (4015c4 <rx_cb_UART_MC_2+0x4c>)
  401580:	2201      	movs	r2, #1
  401582:	f10d 0107 	add.w	r1, sp, #7
  401586:	4630      	mov	r0, r6
  401588:	4b0f      	ldr	r3, [pc, #60]	; (4015c8 <rx_cb_UART_MC_2+0x50>)
  40158a:	4798      	blx	r3
  40158c:	b108      	cbz	r0, 401592 <rx_cb_UART_MC_2+0x1a>
  40158e:	3d01      	subs	r5, #1
  401590:	d101      	bne.n	401596 <rx_cb_UART_MC_2+0x1e>
  401592:	b002      	add	sp, #8
  401594:	bd70      	pop	{r4, r5, r6, pc}
  401596:	4b0d      	ldr	r3, [pc, #52]	; (4015cc <rx_cb_UART_MC_2+0x54>)
  401598:	4798      	blx	r3
  40159a:	7b23      	ldrb	r3, [r4, #12]
  40159c:	f89d 2007 	ldrb.w	r2, [sp, #7]
  4015a0:	2b7e      	cmp	r3, #126	; 0x7e
  4015a2:	eb04 0103 	add.w	r1, r4, r3
  4015a6:	60a0      	str	r0, [r4, #8]
  4015a8:	bfd4      	ite	le
  4015aa:	3301      	addle	r3, #1
  4015ac:	2300      	movgt	r3, #0
  4015ae:	734a      	strb	r2, [r1, #13]
  4015b0:	7323      	strb	r3, [r4, #12]
  4015b2:	2a00      	cmp	r2, #0
  4015b4:	d1e4      	bne.n	401580 <rx_cb_UART_MC_2+0x8>
  4015b6:	2301      	movs	r3, #1
  4015b8:	7322      	strb	r2, [r4, #12]
  4015ba:	f884 308d 	strb.w	r3, [r4, #141]	; 0x8d
  4015be:	e7df      	b.n	401580 <rx_cb_UART_MC_2+0x8>
  4015c0:	204005e4 	.word	0x204005e4
  4015c4:	20400328 	.word	0x20400328
  4015c8:	00400835 	.word	0x00400835
  4015cc:	00401539 	.word	0x00401539

004015d0 <rx_cb_UART_MC_1>:
  4015d0:	b573      	push	{r0, r1, r4, r5, r6, lr}
  4015d2:	254f      	movs	r5, #79	; 0x4f
  4015d4:	4e13      	ldr	r6, [pc, #76]	; (401624 <rx_cb_UART_MC_1+0x54>)
  4015d6:	4c14      	ldr	r4, [pc, #80]	; (401628 <rx_cb_UART_MC_1+0x58>)
  4015d8:	2201      	movs	r2, #1
  4015da:	f10d 0107 	add.w	r1, sp, #7
  4015de:	4630      	mov	r0, r6
  4015e0:	4b12      	ldr	r3, [pc, #72]	; (40162c <rx_cb_UART_MC_1+0x5c>)
  4015e2:	4798      	blx	r3
  4015e4:	b108      	cbz	r0, 4015ea <rx_cb_UART_MC_1+0x1a>
  4015e6:	3d01      	subs	r5, #1
  4015e8:	d101      	bne.n	4015ee <rx_cb_UART_MC_1+0x1e>
  4015ea:	b002      	add	sp, #8
  4015ec:	bd70      	pop	{r4, r5, r6, pc}
  4015ee:	4b10      	ldr	r3, [pc, #64]	; (401630 <rx_cb_UART_MC_1+0x60>)
  4015f0:	4798      	blx	r3
  4015f2:	f894 3094 	ldrb.w	r3, [r4, #148]	; 0x94
  4015f6:	f89d 2007 	ldrb.w	r2, [sp, #7]
  4015fa:	2b7e      	cmp	r3, #126	; 0x7e
  4015fc:	eb04 0103 	add.w	r1, r4, r3
  401600:	f8c4 0090 	str.w	r0, [r4, #144]	; 0x90
  401604:	bfd4      	ite	le
  401606:	3301      	addle	r3, #1
  401608:	2300      	movgt	r3, #0
  40160a:	2a0a      	cmp	r2, #10
  40160c:	f881 2095 	strb.w	r2, [r1, #149]	; 0x95
  401610:	f884 3094 	strb.w	r3, [r4, #148]	; 0x94
  401614:	bf01      	itttt	eq
  401616:	2301      	moveq	r3, #1
  401618:	f884 3115 	strbeq.w	r3, [r4, #277]	; 0x115
  40161c:	2300      	moveq	r3, #0
  40161e:	f884 3094 	strbeq.w	r3, [r4, #148]	; 0x94
  401622:	e7d9      	b.n	4015d8 <rx_cb_UART_MC_1+0x8>
  401624:	204004a8 	.word	0x204004a8
  401628:	20400328 	.word	0x20400328
  40162c:	00400835 	.word	0x00400835
  401630:	00401539 	.word	0x00401539

00401634 <inv_parse_rx>:
  401634:	e92d 41f3 	stmdb	sp!, {r0, r1, r4, r5, r6, r7, r8, lr}
  401638:	4616      	mov	r6, r2
  40163a:	7802      	ldrb	r2, [r0, #0]
  40163c:	4604      	mov	r4, r0
  40163e:	4688      	mov	r8, r1
  401640:	2a73      	cmp	r2, #115	; 0x73
  401642:	d00d      	beq.n	401660 <inv_parse_rx+0x2c>
  401644:	d805      	bhi.n	401652 <inv_parse_rx+0x1e>
  401646:	3a53      	subs	r2, #83	; 0x53
  401648:	2a01      	cmp	r2, #1
  40164a:	d909      	bls.n	401660 <inv_parse_rx+0x2c>
  40164c:	b002      	add	sp, #8
  40164e:	e8bd 81f0 	ldmia.w	sp!, {r4, r5, r6, r7, r8, pc}
  401652:	2a74      	cmp	r2, #116	; 0x74
  401654:	d1fa      	bne.n	40164c <inv_parse_rx+0x18>
  401656:	4618      	mov	r0, r3
  401658:	2204      	movs	r2, #4
  40165a:	4922      	ldr	r1, [pc, #136]	; (4016e4 <inv_parse_rx+0xb0>)
  40165c:	4b22      	ldr	r3, [pc, #136]	; (4016e8 <inv_parse_rx+0xb4>)
  40165e:	4798      	blx	r3
  401660:	ad02      	add	r5, sp, #8
  401662:	1ca0      	adds	r0, r4, #2
  401664:	4f21      	ldr	r7, [pc, #132]	; (4016ec <inv_parse_rx+0xb8>)
  401666:	f845 4d04 	str.w	r4, [r5, #-4]!
  40166a:	4629      	mov	r1, r5
  40166c:	47b8      	blx	r7
  40166e:	4444      	add	r4, r8
  401670:	60b0      	str	r0, [r6, #8]
  401672:	9801      	ldr	r0, [sp, #4]
  401674:	42a0      	cmp	r0, r4
  401676:	d8e9      	bhi.n	40164c <inv_parse_rx+0x18>
  401678:	4629      	mov	r1, r5
  40167a:	3004      	adds	r0, #4
  40167c:	47b8      	blx	r7
  40167e:	6070      	str	r0, [r6, #4]
  401680:	9801      	ldr	r0, [sp, #4]
  401682:	42a0      	cmp	r0, r4
  401684:	d8e2      	bhi.n	40164c <inv_parse_rx+0x18>
  401686:	220a      	movs	r2, #10
  401688:	4629      	mov	r1, r5
  40168a:	3006      	adds	r0, #6
  40168c:	f8df 8060 	ldr.w	r8, [pc, #96]	; 4016f0 <inv_parse_rx+0xbc>
  401690:	47c0      	blx	r8
  401692:	60f0      	str	r0, [r6, #12]
  401694:	9801      	ldr	r0, [sp, #4]
  401696:	42a0      	cmp	r0, r4
  401698:	d8d8      	bhi.n	40164c <inv_parse_rx+0x18>
  40169a:	4629      	mov	r1, r5
  40169c:	3003      	adds	r0, #3
  40169e:	47b8      	blx	r7
  4016a0:	6130      	str	r0, [r6, #16]
  4016a2:	9801      	ldr	r0, [sp, #4]
  4016a4:	42a0      	cmp	r0, r4
  4016a6:	d8d1      	bhi.n	40164c <inv_parse_rx+0x18>
  4016a8:	4629      	mov	r1, r5
  4016aa:	3004      	adds	r0, #4
  4016ac:	47b8      	blx	r7
  4016ae:	6170      	str	r0, [r6, #20]
  4016b0:	9801      	ldr	r0, [sp, #4]
  4016b2:	42a0      	cmp	r0, r4
  4016b4:	d8ca      	bhi.n	40164c <inv_parse_rx+0x18>
  4016b6:	220a      	movs	r2, #10
  4016b8:	4629      	mov	r1, r5
  4016ba:	3006      	adds	r0, #6
  4016bc:	47c0      	blx	r8
  4016be:	61b0      	str	r0, [r6, #24]
  4016c0:	9801      	ldr	r0, [sp, #4]
  4016c2:	42a0      	cmp	r0, r4
  4016c4:	d8c2      	bhi.n	40164c <inv_parse_rx+0x18>
  4016c6:	220a      	movs	r2, #10
  4016c8:	4629      	mov	r1, r5
  4016ca:	3005      	adds	r0, #5
  4016cc:	47c0      	blx	r8
  4016ce:	61f0      	str	r0, [r6, #28]
  4016d0:	9801      	ldr	r0, [sp, #4]
  4016d2:	42a0      	cmp	r0, r4
  4016d4:	d8ba      	bhi.n	40164c <inv_parse_rx+0x18>
  4016d6:	220a      	movs	r2, #10
  4016d8:	4629      	mov	r1, r5
  4016da:	3007      	adds	r0, #7
  4016dc:	47c0      	blx	r8
  4016de:	6230      	str	r0, [r6, #32]
  4016e0:	e7b4      	b.n	40164c <inv_parse_rx+0x18>
  4016e2:	bf00      	nop
  4016e4:	00404301 	.word	0x00404301
  4016e8:	00400831 	.word	0x00400831
  4016ec:	00402591 	.word	0x00402591
  4016f0:	0040272d 	.word	0x0040272d

004016f4 <CAN_0_tx_callback>:
  4016f4:	4a04      	ldr	r2, [pc, #16]	; (401708 <CAN_0_tx_callback+0x14>)
  4016f6:	6b93      	ldr	r3, [r2, #56]	; 0x38
  4016f8:	f403 7380 	and.w	r3, r3, #256	; 0x100
  4016fc:	43d9      	mvns	r1, r3
  4016fe:	f401 7180 	and.w	r1, r1, #256	; 0x100
  401702:	6311      	str	r1, [r2, #48]	; 0x30
  401704:	6353      	str	r3, [r2, #52]	; 0x34
  401706:	4770      	bx	lr
  401708:	400e1200 	.word	0x400e1200

0040170c <can_rx_queue_initialise>:
  40170c:	b510      	push	{r4, lr}
  40170e:	2300      	movs	r3, #0
  401710:	4c04      	ldr	r4, [pc, #16]	; (401724 <can_rx_queue_initialise+0x18>)
  401712:	4805      	ldr	r0, [pc, #20]	; (401728 <can_rx_queue_initialise+0x1c>)
  401714:	eb04 0243 	add.w	r2, r4, r3, lsl #1
  401718:	1819      	adds	r1, r3, r0
  40171a:	3308      	adds	r3, #8
  40171c:	6091      	str	r1, [r2, #8]
  40171e:	2b80      	cmp	r3, #128	; 0x80
  401720:	d1f8      	bne.n	401714 <can_rx_queue_initialise+0x8>
  401722:	bd10      	pop	{r4, pc}
  401724:	204007ec 	.word	0x204007ec
  401728:	2040073c 	.word	0x2040073c

0040172c <can_rx_queue_push>:
  40172c:	4b09      	ldr	r3, [pc, #36]	; (401754 <can_rx_queue_push+0x28>)
  40172e:	480a      	ldr	r0, [pc, #40]	; (401758 <can_rx_queue_push+0x2c>)
  401730:	f893 2116 	ldrb.w	r2, [r3, #278]	; 0x116
  401734:	2a0e      	cmp	r2, #14
  401736:	eb00 1002 	add.w	r0, r0, r2, lsl #4
  40173a:	bfd4      	ite	le
  40173c:	3201      	addle	r2, #1
  40173e:	2200      	movgt	r2, #0
  401740:	f883 2116 	strb.w	r2, [r3, #278]	; 0x116
  401744:	f893 2117 	ldrb.w	r2, [r3, #279]	; 0x117
  401748:	2a0f      	cmp	r2, #15
  40174a:	bf9c      	itt	ls
  40174c:	3201      	addls	r2, #1
  40174e:	f883 2117 	strbls.w	r2, [r3, #279]	; 0x117
  401752:	4770      	bx	lr
  401754:	20400328 	.word	0x20400328
  401758:	204007ec 	.word	0x204007ec

0040175c <CAN_0_rx_callback>:
  40175c:	4a09      	ldr	r2, [pc, #36]	; (401784 <CAN_0_rx_callback+0x28>)
  40175e:	6b93      	ldr	r3, [r2, #56]	; 0x38
  401760:	f403 7380 	and.w	r3, r3, #256	; 0x100
  401764:	43d9      	mvns	r1, r3
  401766:	f401 7180 	and.w	r1, r1, #256	; 0x100
  40176a:	b510      	push	{r4, lr}
  40176c:	4604      	mov	r4, r0
  40176e:	6311      	str	r1, [r2, #48]	; 0x30
  401770:	6353      	str	r3, [r2, #52]	; 0x34
  401772:	4b05      	ldr	r3, [pc, #20]	; (401788 <CAN_0_rx_callback+0x2c>)
  401774:	4798      	blx	r3
  401776:	4b05      	ldr	r3, [pc, #20]	; (40178c <CAN_0_rx_callback+0x30>)
  401778:	4601      	mov	r1, r0
  40177a:	4620      	mov	r0, r4
  40177c:	e8bd 4010 	ldmia.w	sp!, {r4, lr}
  401780:	4718      	bx	r3
  401782:	bf00      	nop
  401784:	400e1200 	.word	0x400e1200
  401788:	0040172d 	.word	0x0040172d
  40178c:	00400795 	.word	0x00400795

00401790 <main>:
  401790:	b583      	push	{r0, r1, r7, lr}
  401792:	4b3a      	ldr	r3, [pc, #232]	; (40187c <main+0xec>)
  401794:	2500      	movs	r5, #0
  401796:	4798      	blx	r3
  401798:	4c39      	ldr	r4, [pc, #228]	; (401880 <main+0xf0>)
  40179a:	4a3a      	ldr	r2, [pc, #232]	; (401884 <main+0xf4>)
  40179c:	2100      	movs	r1, #0
  40179e:	483a      	ldr	r0, [pc, #232]	; (401888 <main+0xf8>)
  4017a0:	47a0      	blx	r4
  4017a2:	4a3a      	ldr	r2, [pc, #232]	; (40188c <main+0xfc>)
  4017a4:	2101      	movs	r1, #1
  4017a6:	4838      	ldr	r0, [pc, #224]	; (401888 <main+0xf8>)
  4017a8:	47a0      	blx	r4
  4017aa:	4b39      	ldr	r3, [pc, #228]	; (401890 <main+0x100>)
  4017ac:	4836      	ldr	r0, [pc, #216]	; (401888 <main+0xf8>)
  4017ae:	4798      	blx	r3
  4017b0:	4b38      	ldr	r3, [pc, #224]	; (401894 <main+0x104>)
  4017b2:	f44f 6200 	mov.w	r2, #2048	; 0x800
  4017b6:	4629      	mov	r1, r5
  4017b8:	4c37      	ldr	r4, [pc, #220]	; (401898 <main+0x108>)
  4017ba:	611a      	str	r2, [r3, #16]
  4017bc:	4832      	ldr	r0, [pc, #200]	; (401888 <main+0xf8>)
  4017be:	635a      	str	r2, [r3, #52]	; 0x34
  4017c0:	462a      	mov	r2, r5
  4017c2:	466b      	mov	r3, sp
  4017c4:	9500      	str	r5, [sp, #0]
  4017c6:	9501      	str	r5, [sp, #4]
  4017c8:	47a0      	blx	r4
  4017ca:	4c34      	ldr	r4, [pc, #208]	; (40189c <main+0x10c>)
  4017cc:	2301      	movs	r3, #1
  4017ce:	4a34      	ldr	r2, [pc, #208]	; (4018a0 <main+0x110>)
  4017d0:	f504 718e 	add.w	r1, r4, #284	; 0x11c
  4017d4:	f8c4 3124 	str.w	r3, [r4, #292]	; 0x124
  4017d8:	f884 312c 	strb.w	r3, [r4, #300]	; 0x12c
  4017dc:	4831      	ldr	r0, [pc, #196]	; (4018a4 <main+0x114>)
  4017de:	4b32      	ldr	r3, [pc, #200]	; (4018a8 <main+0x118>)
  4017e0:	f8c4 2128 	str.w	r2, [r4, #296]	; 0x128
  4017e4:	4798      	blx	r3
  4017e6:	4b31      	ldr	r3, [pc, #196]	; (4018ac <main+0x11c>)
  4017e8:	482e      	ldr	r0, [pc, #184]	; (4018a4 <main+0x114>)
  4017ea:	4798      	blx	r3
  4017ec:	4e30      	ldr	r6, [pc, #192]	; (4018b0 <main+0x120>)
  4017ee:	4629      	mov	r1, r5
  4017f0:	4a30      	ldr	r2, [pc, #192]	; (4018b4 <main+0x124>)
  4017f2:	4831      	ldr	r0, [pc, #196]	; (4018b8 <main+0x128>)
  4017f4:	47b0      	blx	r6
  4017f6:	4a31      	ldr	r2, [pc, #196]	; (4018bc <main+0x12c>)
  4017f8:	4629      	mov	r1, r5
  4017fa:	4831      	ldr	r0, [pc, #196]	; (4018c0 <main+0x130>)
  4017fc:	47b0      	blx	r6
  4017fe:	4d31      	ldr	r5, [pc, #196]	; (4018c4 <main+0x134>)
  401800:	482d      	ldr	r0, [pc, #180]	; (4018b8 <main+0x128>)
  401802:	47a8      	blx	r5
  401804:	482e      	ldr	r0, [pc, #184]	; (4018c0 <main+0x130>)
  401806:	47a8      	blx	r5
  401808:	4b2f      	ldr	r3, [pc, #188]	; (4018c8 <main+0x138>)
  40180a:	4798      	blx	r3
  40180c:	f8df 80a8 	ldr.w	r8, [pc, #168]	; 4018b8 <main+0x128>
  401810:	f44f 2200 	mov.w	r2, #524288	; 0x80000
  401814:	4b2d      	ldr	r3, [pc, #180]	; (4018cc <main+0x13c>)
  401816:	4e2a      	ldr	r6, [pc, #168]	; (4018c0 <main+0x130>)
  401818:	4f2d      	ldr	r7, [pc, #180]	; (4018d0 <main+0x140>)
  40181a:	635a      	str	r2, [r3, #52]	; 0x34
  40181c:	f894 3115 	ldrb.w	r3, [r4, #277]	; 0x115
  401820:	b14b      	cbz	r3, 401836 <main+0xa6>
  401822:	4643      	mov	r3, r8
  401824:	4a2b      	ldr	r2, [pc, #172]	; (4018d4 <main+0x144>)
  401826:	f894 1094 	ldrb.w	r1, [r4, #148]	; 0x94
  40182a:	482b      	ldr	r0, [pc, #172]	; (4018d8 <main+0x148>)
  40182c:	4d2b      	ldr	r5, [pc, #172]	; (4018dc <main+0x14c>)
  40182e:	47a8      	blx	r5
  401830:	2300      	movs	r3, #0
  401832:	f884 3115 	strb.w	r3, [r4, #277]	; 0x115
  401836:	f894 308d 	ldrb.w	r3, [r4, #141]	; 0x8d
  40183a:	b143      	cbz	r3, 40184e <main+0xbe>
  40183c:	4633      	mov	r3, r6
  40183e:	4a28      	ldr	r2, [pc, #160]	; (4018e0 <main+0x150>)
  401840:	7b21      	ldrb	r1, [r4, #12]
  401842:	4828      	ldr	r0, [pc, #160]	; (4018e4 <main+0x154>)
  401844:	4d25      	ldr	r5, [pc, #148]	; (4018dc <main+0x14c>)
  401846:	47a8      	blx	r5
  401848:	2300      	movs	r3, #0
  40184a:	f884 308d 	strb.w	r3, [r4, #141]	; 0x8d
  40184e:	2331      	movs	r3, #49	; 0x31
  401850:	4d25      	ldr	r5, [pc, #148]	; (4018e8 <main+0x158>)
  401852:	2202      	movs	r2, #2
  401854:	4925      	ldr	r1, [pc, #148]	; (4018ec <main+0x15c>)
  401856:	f884 3130 	strb.w	r3, [r4, #304]	; 0x130
  40185a:	2366      	movs	r3, #102	; 0x66
  40185c:	4630      	mov	r0, r6
  40185e:	f884 3131 	strb.w	r3, [r4, #305]	; 0x131
  401862:	47a8      	blx	r5
  401864:	4639      	mov	r1, r7
  401866:	2204      	movs	r2, #4
  401868:	4640      	mov	r0, r8
  40186a:	47a8      	blx	r5
  40186c:	2204      	movs	r2, #4
  40186e:	4639      	mov	r1, r7
  401870:	4630      	mov	r0, r6
  401872:	47a8      	blx	r5
  401874:	2064      	movs	r0, #100	; 0x64
  401876:	4b1e      	ldr	r3, [pc, #120]	; (4018f0 <main+0x160>)
  401878:	4798      	blx	r3
  40187a:	e7cf      	b.n	40181c <main+0x8c>
  40187c:	004001d5 	.word	0x004001d5
  401880:	0040079d 	.word	0x0040079d
  401884:	0040175d 	.word	0x0040175d
  401888:	20400464 	.word	0x20400464
  40188c:	004016f5 	.word	0x004016f5
  401890:	0040078d 	.word	0x0040078d
  401894:	400e1400 	.word	0x400e1400
  401898:	004007cd 	.word	0x004007cd
  40189c:	20400328 	.word	0x20400328
  4018a0:	00401551 	.word	0x00401551
  4018a4:	20400660 	.word	0x20400660
  4018a8:	00400931 	.word	0x00400931
  4018ac:	0040090d 	.word	0x0040090d
  4018b0:	00400b19 	.word	0x00400b19
  4018b4:	004015d1 	.word	0x004015d1
  4018b8:	204004a8 	.word	0x204004a8
  4018bc:	00401579 	.word	0x00401579
  4018c0:	204005e4 	.word	0x204005e4
  4018c4:	00400b09 	.word	0x00400b09
  4018c8:	0040170d 	.word	0x0040170d
  4018cc:	400e1200 	.word	0x400e1200
  4018d0:	00404301 	.word	0x00404301
  4018d4:	204008ec 	.word	0x204008ec
  4018d8:	204003bd 	.word	0x204003bd
  4018dc:	00401635 	.word	0x00401635
  4018e0:	204007c4 	.word	0x204007c4
  4018e4:	20400335 	.word	0x20400335
  4018e8:	00400831 	.word	0x00400831
  4018ec:	20400458 	.word	0x20400458
  4018f0:	004007dd 	.word	0x004007dd

004018f4 <__libc_init_array>:
  4018f4:	b570      	push	{r4, r5, r6, lr}
  4018f6:	4e0d      	ldr	r6, [pc, #52]	; (40192c <__libc_init_array+0x38>)
  4018f8:	4c0d      	ldr	r4, [pc, #52]	; (401930 <__libc_init_array+0x3c>)
  4018fa:	1ba4      	subs	r4, r4, r6
  4018fc:	10a4      	asrs	r4, r4, #2
  4018fe:	2500      	movs	r5, #0
  401900:	42a5      	cmp	r5, r4
  401902:	d109      	bne.n	401918 <__libc_init_array+0x24>
  401904:	4e0b      	ldr	r6, [pc, #44]	; (401934 <__libc_init_array+0x40>)
  401906:	4c0c      	ldr	r4, [pc, #48]	; (401938 <__libc_init_array+0x44>)
  401908:	f002 fe66 	bl	4045d8 <_init>
  40190c:	1ba4      	subs	r4, r4, r6
  40190e:	10a4      	asrs	r4, r4, #2
  401910:	2500      	movs	r5, #0
  401912:	42a5      	cmp	r5, r4
  401914:	d105      	bne.n	401922 <__libc_init_array+0x2e>
  401916:	bd70      	pop	{r4, r5, r6, pc}
  401918:	f856 3025 	ldr.w	r3, [r6, r5, lsl #2]
  40191c:	4798      	blx	r3
  40191e:	3501      	adds	r5, #1
  401920:	e7ee      	b.n	401900 <__libc_init_array+0xc>
  401922:	f856 3025 	ldr.w	r3, [r6, r5, lsl #2]
  401926:	4798      	blx	r3
  401928:	3501      	adds	r5, #1
  40192a:	e7f2      	b.n	401912 <__libc_init_array+0x1e>
  40192c:	004045e4 	.word	0x004045e4
  401930:	004045e4 	.word	0x004045e4
  401934:	004045e4 	.word	0x004045e4
  401938:	004045e8 	.word	0x004045e8

0040193c <memcpy>:
  40193c:	b510      	push	{r4, lr}
  40193e:	1e43      	subs	r3, r0, #1
  401940:	440a      	add	r2, r1
  401942:	4291      	cmp	r1, r2
  401944:	d100      	bne.n	401948 <memcpy+0xc>
  401946:	bd10      	pop	{r4, pc}
  401948:	f811 4b01 	ldrb.w	r4, [r1], #1
  40194c:	f803 4f01 	strb.w	r4, [r3, #1]!
  401950:	e7f7      	b.n	401942 <memcpy+0x6>

00401952 <memset>:
  401952:	4402      	add	r2, r0
  401954:	4603      	mov	r3, r0
  401956:	4293      	cmp	r3, r2
  401958:	d100      	bne.n	40195c <memset+0xa>
  40195a:	4770      	bx	lr
  40195c:	f803 1b01 	strb.w	r1, [r3], #1
  401960:	e7f9      	b.n	401956 <memset+0x4>

00401962 <sulp>:
  401962:	e92d 41f0 	stmdb	sp!, {r4, r5, r6, r7, r8, lr}
  401966:	460f      	mov	r7, r1
  401968:	4690      	mov	r8, r2
  40196a:	f001 fce9 	bl	403340 <__ulp>
  40196e:	4604      	mov	r4, r0
  401970:	460d      	mov	r5, r1
  401972:	f1b8 0f00 	cmp.w	r8, #0
  401976:	d011      	beq.n	40199c <sulp+0x3a>
  401978:	f3c7 530a 	ubfx	r3, r7, #20, #11
  40197c:	f1c3 036b 	rsb	r3, r3, #107	; 0x6b
  401980:	2b00      	cmp	r3, #0
  401982:	dd0b      	ble.n	40199c <sulp+0x3a>
  401984:	051b      	lsls	r3, r3, #20
  401986:	f103 557f 	add.w	r5, r3, #1069547520	; 0x3fc00000
  40198a:	2400      	movs	r4, #0
  40198c:	f505 1540 	add.w	r5, r5, #3145728	; 0x300000
  401990:	4622      	mov	r2, r4
  401992:	462b      	mov	r3, r5
  401994:	f002 f866 	bl	403a64 <__aeabi_dmul>
  401998:	4604      	mov	r4, r0
  40199a:	460d      	mov	r5, r1
  40199c:	4620      	mov	r0, r4
  40199e:	4629      	mov	r1, r5
  4019a0:	e8bd 81f0 	ldmia.w	sp!, {r4, r5, r6, r7, r8, pc}
  4019a4:	0000      	movs	r0, r0
	...

004019a8 <_strtod_l>:
  4019a8:	e92d 4ff0 	stmdb	sp!, {r4, r5, r6, r7, r8, r9, sl, fp, lr}
  4019ac:	4699      	mov	r9, r3
  4019ae:	b09f      	sub	sp, #124	; 0x7c
  4019b0:	2300      	movs	r3, #0
  4019b2:	4680      	mov	r8, r0
  4019b4:	4648      	mov	r0, r9
  4019b6:	460c      	mov	r4, r1
  4019b8:	9215      	str	r2, [sp, #84]	; 0x54
  4019ba:	931a      	str	r3, [sp, #104]	; 0x68
  4019bc:	f001 f9ec 	bl	402d98 <__localeconv_l>
  4019c0:	4607      	mov	r7, r0
  4019c2:	6800      	ldr	r0, [r0, #0]
  4019c4:	f001 fe64 	bl	403690 <strlen>
  4019c8:	f04f 0a00 	mov.w	sl, #0
  4019cc:	4605      	mov	r5, r0
  4019ce:	f04f 0b00 	mov.w	fp, #0
  4019d2:	9419      	str	r4, [sp, #100]	; 0x64
  4019d4:	9b19      	ldr	r3, [sp, #100]	; 0x64
  4019d6:	781a      	ldrb	r2, [r3, #0]
  4019d8:	2a0d      	cmp	r2, #13
  4019da:	d833      	bhi.n	401a44 <_strtod_l+0x9c>
  4019dc:	2a09      	cmp	r2, #9
  4019de:	d237      	bcs.n	401a50 <_strtod_l+0xa8>
  4019e0:	2a00      	cmp	r2, #0
  4019e2:	d03f      	beq.n	401a64 <_strtod_l+0xbc>
  4019e4:	2300      	movs	r3, #0
  4019e6:	9309      	str	r3, [sp, #36]	; 0x24
  4019e8:	9e19      	ldr	r6, [sp, #100]	; 0x64
  4019ea:	7833      	ldrb	r3, [r6, #0]
  4019ec:	2b30      	cmp	r3, #48	; 0x30
  4019ee:	f040 8101 	bne.w	401bf4 <_strtod_l+0x24c>
  4019f2:	7873      	ldrb	r3, [r6, #1]
  4019f4:	2b58      	cmp	r3, #88	; 0x58
  4019f6:	d001      	beq.n	4019fc <_strtod_l+0x54>
  4019f8:	2b78      	cmp	r3, #120	; 0x78
  4019fa:	d16b      	bne.n	401ad4 <_strtod_l+0x12c>
  4019fc:	9b09      	ldr	r3, [sp, #36]	; 0x24
  4019fe:	9301      	str	r3, [sp, #4]
  401a00:	ab1a      	add	r3, sp, #104	; 0x68
  401a02:	9300      	str	r3, [sp, #0]
  401a04:	f8cd 9008 	str.w	r9, [sp, #8]
  401a08:	ab1b      	add	r3, sp, #108	; 0x6c
  401a0a:	4aaa      	ldr	r2, [pc, #680]	; (401cb4 <_strtod_l+0x30c>)
  401a0c:	a919      	add	r1, sp, #100	; 0x64
  401a0e:	4640      	mov	r0, r8
  401a10:	f000 feec 	bl	4027ec <__gethex>
  401a14:	f010 0407 	ands.w	r4, r0, #7
  401a18:	4605      	mov	r5, r0
  401a1a:	d005      	beq.n	401a28 <_strtod_l+0x80>
  401a1c:	2c06      	cmp	r4, #6
  401a1e:	d12b      	bne.n	401a78 <_strtod_l+0xd0>
  401a20:	3601      	adds	r6, #1
  401a22:	2300      	movs	r3, #0
  401a24:	9619      	str	r6, [sp, #100]	; 0x64
  401a26:	9309      	str	r3, [sp, #36]	; 0x24
  401a28:	9b15      	ldr	r3, [sp, #84]	; 0x54
  401a2a:	2b00      	cmp	r3, #0
  401a2c:	f040 8599 	bne.w	402562 <_strtod_l+0xbba>
  401a30:	9b09      	ldr	r3, [sp, #36]	; 0x24
  401a32:	b1e3      	cbz	r3, 401a6e <_strtod_l+0xc6>
  401a34:	4652      	mov	r2, sl
  401a36:	f10b 4300 	add.w	r3, fp, #2147483648	; 0x80000000
  401a3a:	4610      	mov	r0, r2
  401a3c:	4619      	mov	r1, r3
  401a3e:	b01f      	add	sp, #124	; 0x7c
  401a40:	e8bd 8ff0 	ldmia.w	sp!, {r4, r5, r6, r7, r8, r9, sl, fp, pc}
  401a44:	2a2b      	cmp	r2, #43	; 0x2b
  401a46:	d006      	beq.n	401a56 <_strtod_l+0xae>
  401a48:	2a2d      	cmp	r2, #45	; 0x2d
  401a4a:	d013      	beq.n	401a74 <_strtod_l+0xcc>
  401a4c:	2a20      	cmp	r2, #32
  401a4e:	d1c9      	bne.n	4019e4 <_strtod_l+0x3c>
  401a50:	3301      	adds	r3, #1
  401a52:	9319      	str	r3, [sp, #100]	; 0x64
  401a54:	e7be      	b.n	4019d4 <_strtod_l+0x2c>
  401a56:	2200      	movs	r2, #0
  401a58:	9209      	str	r2, [sp, #36]	; 0x24
  401a5a:	1c5a      	adds	r2, r3, #1
  401a5c:	9219      	str	r2, [sp, #100]	; 0x64
  401a5e:	785b      	ldrb	r3, [r3, #1]
  401a60:	2b00      	cmp	r3, #0
  401a62:	d1c1      	bne.n	4019e8 <_strtod_l+0x40>
  401a64:	9b15      	ldr	r3, [sp, #84]	; 0x54
  401a66:	9419      	str	r4, [sp, #100]	; 0x64
  401a68:	2b00      	cmp	r3, #0
  401a6a:	f040 8578 	bne.w	40255e <_strtod_l+0xbb6>
  401a6e:	4652      	mov	r2, sl
  401a70:	465b      	mov	r3, fp
  401a72:	e7e2      	b.n	401a3a <_strtod_l+0x92>
  401a74:	2201      	movs	r2, #1
  401a76:	e7ef      	b.n	401a58 <_strtod_l+0xb0>
  401a78:	9a1a      	ldr	r2, [sp, #104]	; 0x68
  401a7a:	b13a      	cbz	r2, 401a8c <_strtod_l+0xe4>
  401a7c:	2135      	movs	r1, #53	; 0x35
  401a7e:	a81c      	add	r0, sp, #112	; 0x70
  401a80:	f001 fd4b 	bl	40351a <__copybits>
  401a84:	991a      	ldr	r1, [sp, #104]	; 0x68
  401a86:	4640      	mov	r0, r8
  401a88:	f001 f9ce 	bl	402e28 <_Bfree>
  401a8c:	3c01      	subs	r4, #1
  401a8e:	2c04      	cmp	r4, #4
  401a90:	d808      	bhi.n	401aa4 <_strtod_l+0xfc>
  401a92:	e8df f004 	tbb	[pc, r4]
  401a96:	030c      	.short	0x030c
  401a98:	1a17      	.short	0x1a17
  401a9a:	0c          	.byte	0x0c
  401a9b:	00          	.byte	0x00
  401a9c:	f8dd a070 	ldr.w	sl, [sp, #112]	; 0x70
  401aa0:	f8dd b074 	ldr.w	fp, [sp, #116]	; 0x74
  401aa4:	0729      	lsls	r1, r5, #28
  401aa6:	d5bf      	bpl.n	401a28 <_strtod_l+0x80>
  401aa8:	f04b 4b00 	orr.w	fp, fp, #2147483648	; 0x80000000
  401aac:	e7bc      	b.n	401a28 <_strtod_l+0x80>
  401aae:	9b1d      	ldr	r3, [sp, #116]	; 0x74
  401ab0:	9a1b      	ldr	r2, [sp, #108]	; 0x6c
  401ab2:	f8dd a070 	ldr.w	sl, [sp, #112]	; 0x70
  401ab6:	f423 1380 	bic.w	r3, r3, #1048576	; 0x100000
  401aba:	f202 4233 	addw	r2, r2, #1075	; 0x433
  401abe:	ea43 5b02 	orr.w	fp, r3, r2, lsl #20
  401ac2:	e7ef      	b.n	401aa4 <_strtod_l+0xfc>
  401ac4:	f8df b1f8 	ldr.w	fp, [pc, #504]	; 401cc0 <_strtod_l+0x318>
  401ac8:	e7ec      	b.n	401aa4 <_strtod_l+0xfc>
  401aca:	f06f 4b00 	mvn.w	fp, #2147483648	; 0x80000000
  401ace:	f04f 3aff 	mov.w	sl, #4294967295
  401ad2:	e7e7      	b.n	401aa4 <_strtod_l+0xfc>
  401ad4:	9b19      	ldr	r3, [sp, #100]	; 0x64
  401ad6:	1c5a      	adds	r2, r3, #1
  401ad8:	9219      	str	r2, [sp, #100]	; 0x64
  401ada:	785b      	ldrb	r3, [r3, #1]
  401adc:	2b30      	cmp	r3, #48	; 0x30
  401ade:	d0f9      	beq.n	401ad4 <_strtod_l+0x12c>
  401ae0:	2b00      	cmp	r3, #0
  401ae2:	d0a1      	beq.n	401a28 <_strtod_l+0x80>
  401ae4:	2301      	movs	r3, #1
  401ae6:	9308      	str	r3, [sp, #32]
  401ae8:	9b19      	ldr	r3, [sp, #100]	; 0x64
  401aea:	930a      	str	r3, [sp, #40]	; 0x28
  401aec:	2300      	movs	r3, #0
  401aee:	9305      	str	r3, [sp, #20]
  401af0:	9306      	str	r3, [sp, #24]
  401af2:	9304      	str	r3, [sp, #16]
  401af4:	220a      	movs	r2, #10
  401af6:	9819      	ldr	r0, [sp, #100]	; 0x64
  401af8:	7806      	ldrb	r6, [r0, #0]
  401afa:	f1a6 0330 	sub.w	r3, r6, #48	; 0x30
  401afe:	b2d9      	uxtb	r1, r3
  401b00:	2909      	cmp	r1, #9
  401b02:	d979      	bls.n	401bf8 <_strtod_l+0x250>
  401b04:	462a      	mov	r2, r5
  401b06:	6839      	ldr	r1, [r7, #0]
  401b08:	f001 fdca 	bl	4036a0 <strncmp>
  401b0c:	2800      	cmp	r0, #0
  401b0e:	f000 8085 	beq.w	401c1c <_strtod_l+0x274>
  401b12:	2000      	movs	r0, #0
  401b14:	9d04      	ldr	r5, [sp, #16]
  401b16:	4633      	mov	r3, r6
  401b18:	4602      	mov	r2, r0
  401b1a:	4601      	mov	r1, r0
  401b1c:	2b65      	cmp	r3, #101	; 0x65
  401b1e:	d002      	beq.n	401b26 <_strtod_l+0x17e>
  401b20:	2b45      	cmp	r3, #69	; 0x45
  401b22:	f040 80ef 	bne.w	401d04 <_strtod_l+0x35c>
  401b26:	b925      	cbnz	r5, 401b32 <_strtod_l+0x18a>
  401b28:	b910      	cbnz	r0, 401b30 <_strtod_l+0x188>
  401b2a:	9b08      	ldr	r3, [sp, #32]
  401b2c:	2b00      	cmp	r3, #0
  401b2e:	d099      	beq.n	401a64 <_strtod_l+0xbc>
  401b30:	2500      	movs	r5, #0
  401b32:	9c19      	ldr	r4, [sp, #100]	; 0x64
  401b34:	1c63      	adds	r3, r4, #1
  401b36:	9319      	str	r3, [sp, #100]	; 0x64
  401b38:	7863      	ldrb	r3, [r4, #1]
  401b3a:	2b2b      	cmp	r3, #43	; 0x2b
  401b3c:	f000 80cf 	beq.w	401cde <_strtod_l+0x336>
  401b40:	2b2d      	cmp	r3, #45	; 0x2d
  401b42:	f000 80d2 	beq.w	401cea <_strtod_l+0x342>
  401b46:	2600      	movs	r6, #0
  401b48:	9607      	str	r6, [sp, #28]
  401b4a:	f1a3 0630 	sub.w	r6, r3, #48	; 0x30
  401b4e:	2e09      	cmp	r6, #9
  401b50:	f200 80d7 	bhi.w	401d02 <_strtod_l+0x35a>
  401b54:	2b30      	cmp	r3, #48	; 0x30
  401b56:	f000 80ca 	beq.w	401cee <_strtod_l+0x346>
  401b5a:	f1a3 0631 	sub.w	r6, r3, #49	; 0x31
  401b5e:	2e08      	cmp	r6, #8
  401b60:	f200 80d0 	bhi.w	401d04 <_strtod_l+0x35c>
  401b64:	f1a3 0e30 	sub.w	lr, r3, #48	; 0x30
  401b68:	9b19      	ldr	r3, [sp, #100]	; 0x64
  401b6a:	f04f 0c0a 	mov.w	ip, #10
  401b6e:	461f      	mov	r7, r3
  401b70:	9b19      	ldr	r3, [sp, #100]	; 0x64
  401b72:	1c5e      	adds	r6, r3, #1
  401b74:	9619      	str	r6, [sp, #100]	; 0x64
  401b76:	785b      	ldrb	r3, [r3, #1]
  401b78:	f1a3 0930 	sub.w	r9, r3, #48	; 0x30
  401b7c:	f1b9 0f09 	cmp.w	r9, #9
  401b80:	f240 80ba 	bls.w	401cf8 <_strtod_l+0x350>
  401b84:	1bf6      	subs	r6, r6, r7
  401b86:	2e08      	cmp	r6, #8
  401b88:	f644 691f 	movw	r9, #19999	; 0x4e1f
  401b8c:	dc02      	bgt.n	401b94 <_strtod_l+0x1ec>
  401b8e:	45f1      	cmp	r9, lr
  401b90:	bfa8      	it	ge
  401b92:	46f1      	movge	r9, lr
  401b94:	9e07      	ldr	r6, [sp, #28]
  401b96:	b10e      	cbz	r6, 401b9c <_strtod_l+0x1f4>
  401b98:	f1c9 0900 	rsb	r9, r9, #0
  401b9c:	2d00      	cmp	r5, #0
  401b9e:	f040 80d7 	bne.w	401d50 <_strtod_l+0x3a8>
  401ba2:	2800      	cmp	r0, #0
  401ba4:	f47f af40 	bne.w	401a28 <_strtod_l+0x80>
  401ba8:	9a08      	ldr	r2, [sp, #32]
  401baa:	2a00      	cmp	r2, #0
  401bac:	f47f af3c 	bne.w	401a28 <_strtod_l+0x80>
  401bb0:	2900      	cmp	r1, #0
  401bb2:	f47f af57 	bne.w	401a64 <_strtod_l+0xbc>
  401bb6:	2b4e      	cmp	r3, #78	; 0x4e
  401bb8:	f000 80ad 	beq.w	401d16 <_strtod_l+0x36e>
  401bbc:	f300 80a5 	bgt.w	401d0a <_strtod_l+0x362>
  401bc0:	2b49      	cmp	r3, #73	; 0x49
  401bc2:	f47f af4f 	bne.w	401a64 <_strtod_l+0xbc>
  401bc6:	493c      	ldr	r1, [pc, #240]	; (401cb8 <_strtod_l+0x310>)
  401bc8:	a819      	add	r0, sp, #100	; 0x64
  401bca:	f001 f83f 	bl	402c4c <__match>
  401bce:	2800      	cmp	r0, #0
  401bd0:	f43f af48 	beq.w	401a64 <_strtod_l+0xbc>
  401bd4:	9b19      	ldr	r3, [sp, #100]	; 0x64
  401bd6:	4939      	ldr	r1, [pc, #228]	; (401cbc <_strtod_l+0x314>)
  401bd8:	3b01      	subs	r3, #1
  401bda:	a819      	add	r0, sp, #100	; 0x64
  401bdc:	9319      	str	r3, [sp, #100]	; 0x64
  401bde:	f001 f835 	bl	402c4c <__match>
  401be2:	b910      	cbnz	r0, 401bea <_strtod_l+0x242>
  401be4:	9b19      	ldr	r3, [sp, #100]	; 0x64
  401be6:	3301      	adds	r3, #1
  401be8:	9319      	str	r3, [sp, #100]	; 0x64
  401bea:	f8df b0d4 	ldr.w	fp, [pc, #212]	; 401cc0 <_strtod_l+0x318>
  401bee:	f04f 0a00 	mov.w	sl, #0
  401bf2:	e719      	b.n	401a28 <_strtod_l+0x80>
  401bf4:	2300      	movs	r3, #0
  401bf6:	e776      	b.n	401ae6 <_strtod_l+0x13e>
  401bf8:	9904      	ldr	r1, [sp, #16]
  401bfa:	2908      	cmp	r1, #8
  401bfc:	bfd5      	itete	le
  401bfe:	9906      	ldrle	r1, [sp, #24]
  401c00:	9905      	ldrgt	r1, [sp, #20]
  401c02:	fb02 3301 	mlale	r3, r2, r1, r3
  401c06:	fb02 3301 	mlagt	r3, r2, r1, r3
  401c0a:	bfd4      	ite	le
  401c0c:	9306      	strle	r3, [sp, #24]
  401c0e:	9305      	strgt	r3, [sp, #20]
  401c10:	9b04      	ldr	r3, [sp, #16]
  401c12:	3001      	adds	r0, #1
  401c14:	3301      	adds	r3, #1
  401c16:	9304      	str	r3, [sp, #16]
  401c18:	9019      	str	r0, [sp, #100]	; 0x64
  401c1a:	e76c      	b.n	401af6 <_strtod_l+0x14e>
  401c1c:	9b19      	ldr	r3, [sp, #100]	; 0x64
  401c1e:	195a      	adds	r2, r3, r5
  401c20:	9219      	str	r2, [sp, #100]	; 0x64
  401c22:	9a04      	ldr	r2, [sp, #16]
  401c24:	5d5b      	ldrb	r3, [r3, r5]
  401c26:	2a00      	cmp	r2, #0
  401c28:	d154      	bne.n	401cd4 <_strtod_l+0x32c>
  401c2a:	4610      	mov	r0, r2
  401c2c:	2b30      	cmp	r3, #48	; 0x30
  401c2e:	d02a      	beq.n	401c86 <_strtod_l+0x2de>
  401c30:	f1a3 0231 	sub.w	r2, r3, #49	; 0x31
  401c34:	2a08      	cmp	r2, #8
  401c36:	f200 8499 	bhi.w	40256c <_strtod_l+0xbc4>
  401c3a:	9a19      	ldr	r2, [sp, #100]	; 0x64
  401c3c:	920a      	str	r2, [sp, #40]	; 0x28
  401c3e:	4602      	mov	r2, r0
  401c40:	2000      	movs	r0, #0
  401c42:	4605      	mov	r5, r0
  401c44:	3b30      	subs	r3, #48	; 0x30
  401c46:	f100 0101 	add.w	r1, r0, #1
  401c4a:	d011      	beq.n	401c70 <_strtod_l+0x2c8>
  401c4c:	440a      	add	r2, r1
  401c4e:	eb00 0c05 	add.w	ip, r0, r5
  401c52:	4629      	mov	r1, r5
  401c54:	260a      	movs	r6, #10
  401c56:	4561      	cmp	r1, ip
  401c58:	d11b      	bne.n	401c92 <_strtod_l+0x2ea>
  401c5a:	4428      	add	r0, r5
  401c5c:	2808      	cmp	r0, #8
  401c5e:	f100 0501 	add.w	r5, r0, #1
  401c62:	dc2f      	bgt.n	401cc4 <_strtod_l+0x31c>
  401c64:	9806      	ldr	r0, [sp, #24]
  401c66:	210a      	movs	r1, #10
  401c68:	fb01 3300 	mla	r3, r1, r0, r3
  401c6c:	9306      	str	r3, [sp, #24]
  401c6e:	2100      	movs	r1, #0
  401c70:	9b19      	ldr	r3, [sp, #100]	; 0x64
  401c72:	1c58      	adds	r0, r3, #1
  401c74:	9019      	str	r0, [sp, #100]	; 0x64
  401c76:	785b      	ldrb	r3, [r3, #1]
  401c78:	4608      	mov	r0, r1
  401c7a:	f1a3 0130 	sub.w	r1, r3, #48	; 0x30
  401c7e:	2909      	cmp	r1, #9
  401c80:	d9e0      	bls.n	401c44 <_strtod_l+0x29c>
  401c82:	2101      	movs	r1, #1
  401c84:	e74a      	b.n	401b1c <_strtod_l+0x174>
  401c86:	9b19      	ldr	r3, [sp, #100]	; 0x64
  401c88:	1c5a      	adds	r2, r3, #1
  401c8a:	9219      	str	r2, [sp, #100]	; 0x64
  401c8c:	3001      	adds	r0, #1
  401c8e:	785b      	ldrb	r3, [r3, #1]
  401c90:	e7cc      	b.n	401c2c <_strtod_l+0x284>
  401c92:	3101      	adds	r1, #1
  401c94:	f101 3eff 	add.w	lr, r1, #4294967295
  401c98:	f1be 0f08 	cmp.w	lr, #8
  401c9c:	dc03      	bgt.n	401ca6 <_strtod_l+0x2fe>
  401c9e:	9f06      	ldr	r7, [sp, #24]
  401ca0:	4377      	muls	r7, r6
  401ca2:	9706      	str	r7, [sp, #24]
  401ca4:	e7d7      	b.n	401c56 <_strtod_l+0x2ae>
  401ca6:	2910      	cmp	r1, #16
  401ca8:	bfde      	ittt	le
  401caa:	9f05      	ldrle	r7, [sp, #20]
  401cac:	4377      	mulle	r7, r6
  401cae:	9705      	strle	r7, [sp, #20]
  401cb0:	e7d1      	b.n	401c56 <_strtod_l+0x2ae>
  401cb2:	bf00      	nop
  401cb4:	00404314 	.word	0x00404314
  401cb8:	00404305 	.word	0x00404305
  401cbc:	00404308 	.word	0x00404308
  401cc0:	7ff00000 	.word	0x7ff00000
  401cc4:	2d10      	cmp	r5, #16
  401cc6:	bfdf      	itttt	le
  401cc8:	9805      	ldrle	r0, [sp, #20]
  401cca:	210a      	movle	r1, #10
  401ccc:	fb01 3300 	mlale	r3, r1, r0, r3
  401cd0:	9305      	strle	r3, [sp, #20]
  401cd2:	e7cc      	b.n	401c6e <_strtod_l+0x2c6>
  401cd4:	4602      	mov	r2, r0
  401cd6:	9d04      	ldr	r5, [sp, #16]
  401cd8:	e7cf      	b.n	401c7a <_strtod_l+0x2d2>
  401cda:	2101      	movs	r1, #1
  401cdc:	e724      	b.n	401b28 <_strtod_l+0x180>
  401cde:	2300      	movs	r3, #0
  401ce0:	9307      	str	r3, [sp, #28]
  401ce2:	1ca3      	adds	r3, r4, #2
  401ce4:	9319      	str	r3, [sp, #100]	; 0x64
  401ce6:	78a3      	ldrb	r3, [r4, #2]
  401ce8:	e72f      	b.n	401b4a <_strtod_l+0x1a2>
  401cea:	2301      	movs	r3, #1
  401cec:	e7f8      	b.n	401ce0 <_strtod_l+0x338>
  401cee:	9b19      	ldr	r3, [sp, #100]	; 0x64
  401cf0:	1c5e      	adds	r6, r3, #1
  401cf2:	9619      	str	r6, [sp, #100]	; 0x64
  401cf4:	785b      	ldrb	r3, [r3, #1]
  401cf6:	e72d      	b.n	401b54 <_strtod_l+0x1ac>
  401cf8:	fb0c 3e0e 	mla	lr, ip, lr, r3
  401cfc:	f1ae 0e30 	sub.w	lr, lr, #48	; 0x30
  401d00:	e736      	b.n	401b70 <_strtod_l+0x1c8>
  401d02:	9419      	str	r4, [sp, #100]	; 0x64
  401d04:	f04f 0900 	mov.w	r9, #0
  401d08:	e748      	b.n	401b9c <_strtod_l+0x1f4>
  401d0a:	2b69      	cmp	r3, #105	; 0x69
  401d0c:	f43f af5b 	beq.w	401bc6 <_strtod_l+0x21e>
  401d10:	2b6e      	cmp	r3, #110	; 0x6e
  401d12:	f47f aea7 	bne.w	401a64 <_strtod_l+0xbc>
  401d16:	498c      	ldr	r1, [pc, #560]	; (401f48 <_strtod_l+0x5a0>)
  401d18:	a819      	add	r0, sp, #100	; 0x64
  401d1a:	f000 ff97 	bl	402c4c <__match>
  401d1e:	2800      	cmp	r0, #0
  401d20:	f43f aea0 	beq.w	401a64 <_strtod_l+0xbc>
  401d24:	9b19      	ldr	r3, [sp, #100]	; 0x64
  401d26:	781b      	ldrb	r3, [r3, #0]
  401d28:	2b28      	cmp	r3, #40	; 0x28
  401d2a:	d10e      	bne.n	401d4a <_strtod_l+0x3a2>
  401d2c:	aa1c      	add	r2, sp, #112	; 0x70
  401d2e:	4987      	ldr	r1, [pc, #540]	; (401f4c <_strtod_l+0x5a4>)
  401d30:	a819      	add	r0, sp, #100	; 0x64
  401d32:	f000 ff9e 	bl	402c72 <__hexnan>
  401d36:	2805      	cmp	r0, #5
  401d38:	d107      	bne.n	401d4a <_strtod_l+0x3a2>
  401d3a:	9b1d      	ldr	r3, [sp, #116]	; 0x74
  401d3c:	f8dd a070 	ldr.w	sl, [sp, #112]	; 0x70
  401d40:	f043 4bff 	orr.w	fp, r3, #2139095040	; 0x7f800000
  401d44:	f44b 0be0 	orr.w	fp, fp, #7340032	; 0x700000
  401d48:	e66e      	b.n	401a28 <_strtod_l+0x80>
  401d4a:	f8df b210 	ldr.w	fp, [pc, #528]	; 401f5c <_strtod_l+0x5b4>
  401d4e:	e74e      	b.n	401bee <_strtod_l+0x246>
  401d50:	9b04      	ldr	r3, [sp, #16]
  401d52:	9806      	ldr	r0, [sp, #24]
  401d54:	2b00      	cmp	r3, #0
  401d56:	bf08      	it	eq
  401d58:	462b      	moveq	r3, r5
  401d5a:	2d10      	cmp	r5, #16
  401d5c:	462c      	mov	r4, r5
  401d5e:	eba9 0902 	sub.w	r9, r9, r2
  401d62:	bfa8      	it	ge
  401d64:	2410      	movge	r4, #16
  401d66:	9304      	str	r3, [sp, #16]
  401d68:	f001 fe06 	bl	403978 <__aeabi_ui2d>
  401d6c:	2c09      	cmp	r4, #9
  401d6e:	4682      	mov	sl, r0
  401d70:	468b      	mov	fp, r1
  401d72:	dd13      	ble.n	401d9c <_strtod_l+0x3f4>
  401d74:	4b76      	ldr	r3, [pc, #472]	; (401f50 <_strtod_l+0x5a8>)
  401d76:	eb03 03c4 	add.w	r3, r3, r4, lsl #3
  401d7a:	e953 2312 	ldrd	r2, r3, [r3, #-72]	; 0x48
  401d7e:	f001 fe71 	bl	403a64 <__aeabi_dmul>
  401d82:	4606      	mov	r6, r0
  401d84:	9805      	ldr	r0, [sp, #20]
  401d86:	460f      	mov	r7, r1
  401d88:	f001 fdf6 	bl	403978 <__aeabi_ui2d>
  401d8c:	4602      	mov	r2, r0
  401d8e:	460b      	mov	r3, r1
  401d90:	4630      	mov	r0, r6
  401d92:	4639      	mov	r1, r7
  401d94:	f001 fcb4 	bl	403700 <__adddf3>
  401d98:	4682      	mov	sl, r0
  401d9a:	468b      	mov	fp, r1
  401d9c:	2d0f      	cmp	r5, #15
  401d9e:	dc36      	bgt.n	401e0e <_strtod_l+0x466>
  401da0:	f1b9 0f00 	cmp.w	r9, #0
  401da4:	f43f ae40 	beq.w	401a28 <_strtod_l+0x80>
  401da8:	dd24      	ble.n	401df4 <_strtod_l+0x44c>
  401daa:	f1b9 0f16 	cmp.w	r9, #22
  401dae:	dc0b      	bgt.n	401dc8 <_strtod_l+0x420>
  401db0:	4d67      	ldr	r5, [pc, #412]	; (401f50 <_strtod_l+0x5a8>)
  401db2:	eb05 09c9 	add.w	r9, r5, r9, lsl #3
  401db6:	e9d9 0100 	ldrd	r0, r1, [r9]
  401dba:	4652      	mov	r2, sl
  401dbc:	465b      	mov	r3, fp
  401dbe:	f001 fe51 	bl	403a64 <__aeabi_dmul>
  401dc2:	4682      	mov	sl, r0
  401dc4:	468b      	mov	fp, r1
  401dc6:	e62f      	b.n	401a28 <_strtod_l+0x80>
  401dc8:	f1c5 0325 	rsb	r3, r5, #37	; 0x25
  401dcc:	4599      	cmp	r9, r3
  401dce:	dc1e      	bgt.n	401e0e <_strtod_l+0x466>
  401dd0:	4c5f      	ldr	r4, [pc, #380]	; (401f50 <_strtod_l+0x5a8>)
  401dd2:	f1c5 050f 	rsb	r5, r5, #15
  401dd6:	eb04 01c5 	add.w	r1, r4, r5, lsl #3
  401dda:	eba9 0505 	sub.w	r5, r9, r5
  401dde:	4652      	mov	r2, sl
  401de0:	465b      	mov	r3, fp
  401de2:	e9d1 0100 	ldrd	r0, r1, [r1]
  401de6:	eb04 04c5 	add.w	r4, r4, r5, lsl #3
  401dea:	f001 fe3b 	bl	403a64 <__aeabi_dmul>
  401dee:	e9d4 2300 	ldrd	r2, r3, [r4]
  401df2:	e7e4      	b.n	401dbe <_strtod_l+0x416>
  401df4:	f119 0f16 	cmn.w	r9, #22
  401df8:	db09      	blt.n	401e0e <_strtod_l+0x466>
  401dfa:	4d55      	ldr	r5, [pc, #340]	; (401f50 <_strtod_l+0x5a8>)
  401dfc:	eba5 09c9 	sub.w	r9, r5, r9, lsl #3
  401e00:	e9d9 2300 	ldrd	r2, r3, [r9]
  401e04:	4650      	mov	r0, sl
  401e06:	4659      	mov	r1, fp
  401e08:	f001 ff56 	bl	403cb8 <__aeabi_ddiv>
  401e0c:	e7d9      	b.n	401dc2 <_strtod_l+0x41a>
  401e0e:	1b2c      	subs	r4, r5, r4
  401e10:	444c      	add	r4, r9
  401e12:	2c00      	cmp	r4, #0
  401e14:	dd73      	ble.n	401efe <_strtod_l+0x556>
  401e16:	f014 030f 	ands.w	r3, r4, #15
  401e1a:	d00a      	beq.n	401e32 <_strtod_l+0x48a>
  401e1c:	494c      	ldr	r1, [pc, #304]	; (401f50 <_strtod_l+0x5a8>)
  401e1e:	eb01 01c3 	add.w	r1, r1, r3, lsl #3
  401e22:	4652      	mov	r2, sl
  401e24:	465b      	mov	r3, fp
  401e26:	e9d1 0100 	ldrd	r0, r1, [r1]
  401e2a:	f001 fe1b 	bl	403a64 <__aeabi_dmul>
  401e2e:	4682      	mov	sl, r0
  401e30:	468b      	mov	fp, r1
  401e32:	f034 040f 	bics.w	r4, r4, #15
  401e36:	d054      	beq.n	401ee2 <_strtod_l+0x53a>
  401e38:	f5b4 7f9a 	cmp.w	r4, #308	; 0x134
  401e3c:	dd27      	ble.n	401e8e <_strtod_l+0x4e6>
  401e3e:	f04f 0900 	mov.w	r9, #0
  401e42:	f8cd 9010 	str.w	r9, [sp, #16]
  401e46:	f8cd 901c 	str.w	r9, [sp, #28]
  401e4a:	f8cd 9018 	str.w	r9, [sp, #24]
  401e4e:	2322      	movs	r3, #34	; 0x22
  401e50:	f8df b10c 	ldr.w	fp, [pc, #268]	; 401f60 <_strtod_l+0x5b8>
  401e54:	f8c8 3000 	str.w	r3, [r8]
  401e58:	f04f 0a00 	mov.w	sl, #0
  401e5c:	9b07      	ldr	r3, [sp, #28]
  401e5e:	2b00      	cmp	r3, #0
  401e60:	f43f ade2 	beq.w	401a28 <_strtod_l+0x80>
  401e64:	991a      	ldr	r1, [sp, #104]	; 0x68
  401e66:	4640      	mov	r0, r8
  401e68:	f000 ffde 	bl	402e28 <_Bfree>
  401e6c:	9906      	ldr	r1, [sp, #24]
  401e6e:	4640      	mov	r0, r8
  401e70:	f000 ffda 	bl	402e28 <_Bfree>
  401e74:	9904      	ldr	r1, [sp, #16]
  401e76:	4640      	mov	r0, r8
  401e78:	f000 ffd6 	bl	402e28 <_Bfree>
  401e7c:	9907      	ldr	r1, [sp, #28]
  401e7e:	4640      	mov	r0, r8
  401e80:	f000 ffd2 	bl	402e28 <_Bfree>
  401e84:	4649      	mov	r1, r9
  401e86:	4640      	mov	r0, r8
  401e88:	f000 ffce 	bl	402e28 <_Bfree>
  401e8c:	e5cc      	b.n	401a28 <_strtod_l+0x80>
  401e8e:	2300      	movs	r3, #0
  401e90:	4e30      	ldr	r6, [pc, #192]	; (401f54 <_strtod_l+0x5ac>)
  401e92:	1124      	asrs	r4, r4, #4
  401e94:	4650      	mov	r0, sl
  401e96:	4659      	mov	r1, fp
  401e98:	461f      	mov	r7, r3
  401e9a:	2c01      	cmp	r4, #1
  401e9c:	dc24      	bgt.n	401ee8 <_strtod_l+0x540>
  401e9e:	b10b      	cbz	r3, 401ea4 <_strtod_l+0x4fc>
  401ea0:	4682      	mov	sl, r0
  401ea2:	468b      	mov	fp, r1
  401ea4:	4b2b      	ldr	r3, [pc, #172]	; (401f54 <_strtod_l+0x5ac>)
  401ea6:	f1ab 7b54 	sub.w	fp, fp, #55574528	; 0x3500000
  401eaa:	eb03 07c7 	add.w	r7, r3, r7, lsl #3
  401eae:	4652      	mov	r2, sl
  401eb0:	465b      	mov	r3, fp
  401eb2:	e9d7 0100 	ldrd	r0, r1, [r7]
  401eb6:	f001 fdd5 	bl	403a64 <__aeabi_dmul>
  401eba:	f021 4300 	bic.w	r3, r1, #2147483648	; 0x80000000
  401ebe:	468b      	mov	fp, r1
  401ec0:	460a      	mov	r2, r1
  401ec2:	0d1b      	lsrs	r3, r3, #20
  401ec4:	4924      	ldr	r1, [pc, #144]	; (401f58 <_strtod_l+0x5b0>)
  401ec6:	051b      	lsls	r3, r3, #20
  401ec8:	428b      	cmp	r3, r1
  401eca:	4682      	mov	sl, r0
  401ecc:	d8b7      	bhi.n	401e3e <_strtod_l+0x496>
  401ece:	f5a1 1180 	sub.w	r1, r1, #1048576	; 0x100000
  401ed2:	428b      	cmp	r3, r1
  401ed4:	bf86      	itte	hi
  401ed6:	f8df b08c 	ldrhi.w	fp, [pc, #140]	; 401f64 <_strtod_l+0x5bc>
  401eda:	f04f 3aff 	movhi.w	sl, #4294967295
  401ede:	f102 7b54 	addls.w	fp, r2, #55574528	; 0x3500000
  401ee2:	2300      	movs	r3, #0
  401ee4:	9305      	str	r3, [sp, #20]
  401ee6:	e070      	b.n	401fca <_strtod_l+0x622>
  401ee8:	07e2      	lsls	r2, r4, #31
  401eea:	d504      	bpl.n	401ef6 <_strtod_l+0x54e>
  401eec:	e9d6 2300 	ldrd	r2, r3, [r6]
  401ef0:	f001 fdb8 	bl	403a64 <__aeabi_dmul>
  401ef4:	2301      	movs	r3, #1
  401ef6:	3701      	adds	r7, #1
  401ef8:	1064      	asrs	r4, r4, #1
  401efa:	3608      	adds	r6, #8
  401efc:	e7cd      	b.n	401e9a <_strtod_l+0x4f2>
  401efe:	d0f0      	beq.n	401ee2 <_strtod_l+0x53a>
  401f00:	4264      	negs	r4, r4
  401f02:	f014 020f 	ands.w	r2, r4, #15
  401f06:	d00a      	beq.n	401f1e <_strtod_l+0x576>
  401f08:	4b11      	ldr	r3, [pc, #68]	; (401f50 <_strtod_l+0x5a8>)
  401f0a:	eb03 03c2 	add.w	r3, r3, r2, lsl #3
  401f0e:	4650      	mov	r0, sl
  401f10:	4659      	mov	r1, fp
  401f12:	e9d3 2300 	ldrd	r2, r3, [r3]
  401f16:	f001 fecf 	bl	403cb8 <__aeabi_ddiv>
  401f1a:	4682      	mov	sl, r0
  401f1c:	468b      	mov	fp, r1
  401f1e:	1124      	asrs	r4, r4, #4
  401f20:	d0df      	beq.n	401ee2 <_strtod_l+0x53a>
  401f22:	2c1f      	cmp	r4, #31
  401f24:	dd20      	ble.n	401f68 <_strtod_l+0x5c0>
  401f26:	f04f 0900 	mov.w	r9, #0
  401f2a:	f8cd 9010 	str.w	r9, [sp, #16]
  401f2e:	f8cd 901c 	str.w	r9, [sp, #28]
  401f32:	f8cd 9018 	str.w	r9, [sp, #24]
  401f36:	2322      	movs	r3, #34	; 0x22
  401f38:	f04f 0a00 	mov.w	sl, #0
  401f3c:	f04f 0b00 	mov.w	fp, #0
  401f40:	f8c8 3000 	str.w	r3, [r8]
  401f44:	e78a      	b.n	401e5c <_strtod_l+0x4b4>
  401f46:	bf00      	nop
  401f48:	0040430e 	.word	0x0040430e
  401f4c:	00404328 	.word	0x00404328
  401f50:	00404400 	.word	0x00404400
  401f54:	004043d8 	.word	0x004043d8
  401f58:	7ca00000 	.word	0x7ca00000
  401f5c:	fff80000 	.word	0xfff80000
  401f60:	7ff00000 	.word	0x7ff00000
  401f64:	7fefffff 	.word	0x7fefffff
  401f68:	f014 0310 	ands.w	r3, r4, #16
  401f6c:	bf18      	it	ne
  401f6e:	236a      	movne	r3, #106	; 0x6a
  401f70:	4e9f      	ldr	r6, [pc, #636]	; (4021f0 <_strtod_l+0x848>)
  401f72:	9305      	str	r3, [sp, #20]
  401f74:	4650      	mov	r0, sl
  401f76:	4659      	mov	r1, fp
  401f78:	2300      	movs	r3, #0
  401f7a:	2c00      	cmp	r4, #0
  401f7c:	f300 8106 	bgt.w	40218c <_strtod_l+0x7e4>
  401f80:	b10b      	cbz	r3, 401f86 <_strtod_l+0x5de>
  401f82:	4682      	mov	sl, r0
  401f84:	468b      	mov	fp, r1
  401f86:	9b05      	ldr	r3, [sp, #20]
  401f88:	b1bb      	cbz	r3, 401fba <_strtod_l+0x612>
  401f8a:	f3cb 530a 	ubfx	r3, fp, #20, #11
  401f8e:	f1c3 036b 	rsb	r3, r3, #107	; 0x6b
  401f92:	2b00      	cmp	r3, #0
  401f94:	4659      	mov	r1, fp
  401f96:	dd10      	ble.n	401fba <_strtod_l+0x612>
  401f98:	2b1f      	cmp	r3, #31
  401f9a:	f340 8101 	ble.w	4021a0 <_strtod_l+0x7f8>
  401f9e:	2b34      	cmp	r3, #52	; 0x34
  401fa0:	bfde      	ittt	le
  401fa2:	3b20      	suble	r3, #32
  401fa4:	f04f 32ff 	movle.w	r2, #4294967295
  401fa8:	fa02 f303 	lslle.w	r3, r2, r3
  401fac:	f04f 0a00 	mov.w	sl, #0
  401fb0:	bfcc      	ite	gt
  401fb2:	f04f 7b5c 	movgt.w	fp, #57671680	; 0x3700000
  401fb6:	ea03 0b01 	andle.w	fp, r3, r1
  401fba:	2200      	movs	r2, #0
  401fbc:	2300      	movs	r3, #0
  401fbe:	4650      	mov	r0, sl
  401fc0:	4659      	mov	r1, fp
  401fc2:	f001 ffb7 	bl	403f34 <__aeabi_dcmpeq>
  401fc6:	2800      	cmp	r0, #0
  401fc8:	d1ad      	bne.n	401f26 <_strtod_l+0x57e>
  401fca:	9b06      	ldr	r3, [sp, #24]
  401fcc:	9300      	str	r3, [sp, #0]
  401fce:	9a04      	ldr	r2, [sp, #16]
  401fd0:	990a      	ldr	r1, [sp, #40]	; 0x28
  401fd2:	462b      	mov	r3, r5
  401fd4:	4640      	mov	r0, r8
  401fd6:	f000 ff79 	bl	402ecc <__s2b>
  401fda:	9007      	str	r0, [sp, #28]
  401fdc:	2800      	cmp	r0, #0
  401fde:	f43f af2e 	beq.w	401e3e <_strtod_l+0x496>
  401fe2:	f1b9 0f00 	cmp.w	r9, #0
  401fe6:	f1c9 0300 	rsb	r3, r9, #0
  401fea:	bfa8      	it	ge
  401fec:	2300      	movge	r3, #0
  401fee:	930e      	str	r3, [sp, #56]	; 0x38
  401ff0:	ea29 73e9 	bic.w	r3, r9, r9, asr #31
  401ff4:	f04f 0900 	mov.w	r9, #0
  401ff8:	930f      	str	r3, [sp, #60]	; 0x3c
  401ffa:	f8cd 9010 	str.w	r9, [sp, #16]
  401ffe:	9b07      	ldr	r3, [sp, #28]
  402000:	4640      	mov	r0, r8
  402002:	6859      	ldr	r1, [r3, #4]
  402004:	f000 fedc 	bl	402dc0 <_Balloc>
  402008:	9006      	str	r0, [sp, #24]
  40200a:	2800      	cmp	r0, #0
  40200c:	f43f af1f 	beq.w	401e4e <_strtod_l+0x4a6>
  402010:	9b07      	ldr	r3, [sp, #28]
  402012:	691a      	ldr	r2, [r3, #16]
  402014:	3202      	adds	r2, #2
  402016:	f103 010c 	add.w	r1, r3, #12
  40201a:	0092      	lsls	r2, r2, #2
  40201c:	300c      	adds	r0, #12
  40201e:	f7ff fc8d 	bl	40193c <memcpy>
  402022:	ab1c      	add	r3, sp, #112	; 0x70
  402024:	9301      	str	r3, [sp, #4]
  402026:	ab1b      	add	r3, sp, #108	; 0x6c
  402028:	9300      	str	r3, [sp, #0]
  40202a:	4652      	mov	r2, sl
  40202c:	465b      	mov	r3, fp
  40202e:	4640      	mov	r0, r8
  402030:	e9cd ab0a 	strd	sl, fp, [sp, #40]	; 0x28
  402034:	f001 f9fa 	bl	40342c <__d2b>
  402038:	901a      	str	r0, [sp, #104]	; 0x68
  40203a:	2800      	cmp	r0, #0
  40203c:	f43f af07 	beq.w	401e4e <_strtod_l+0x4a6>
  402040:	2101      	movs	r1, #1
  402042:	4640      	mov	r0, r8
  402044:	f000 ffce 	bl	402fe4 <__i2b>
  402048:	9004      	str	r0, [sp, #16]
  40204a:	4603      	mov	r3, r0
  40204c:	2800      	cmp	r0, #0
  40204e:	f43f aefe 	beq.w	401e4e <_strtod_l+0x4a6>
  402052:	9d1b      	ldr	r5, [sp, #108]	; 0x6c
  402054:	9a1c      	ldr	r2, [sp, #112]	; 0x70
  402056:	2d00      	cmp	r5, #0
  402058:	bfab      	itete	ge
  40205a:	9b0e      	ldrge	r3, [sp, #56]	; 0x38
  40205c:	9b0f      	ldrlt	r3, [sp, #60]	; 0x3c
  40205e:	9c0f      	ldrge	r4, [sp, #60]	; 0x3c
  402060:	9e0e      	ldrlt	r6, [sp, #56]	; 0x38
  402062:	bfac      	ite	ge
  402064:	195e      	addge	r6, r3, r5
  402066:	1b5c      	sublt	r4, r3, r5
  402068:	9b05      	ldr	r3, [sp, #20]
  40206a:	1aed      	subs	r5, r5, r3
  40206c:	4415      	add	r5, r2
  40206e:	4b61      	ldr	r3, [pc, #388]	; (4021f4 <_strtod_l+0x84c>)
  402070:	3d01      	subs	r5, #1
  402072:	429d      	cmp	r5, r3
  402074:	f1c2 0236 	rsb	r2, r2, #54	; 0x36
  402078:	f280 80a4 	bge.w	4021c4 <_strtod_l+0x81c>
  40207c:	1b5b      	subs	r3, r3, r5
  40207e:	2b1f      	cmp	r3, #31
  402080:	eba2 0203 	sub.w	r2, r2, r3
  402084:	f04f 0701 	mov.w	r7, #1
  402088:	f300 8091 	bgt.w	4021ae <_strtod_l+0x806>
  40208c:	fa07 f303 	lsl.w	r3, r7, r3
  402090:	9314      	str	r3, [sp, #80]	; 0x50
  402092:	2500      	movs	r5, #0
  402094:	18b7      	adds	r7, r6, r2
  402096:	9b05      	ldr	r3, [sp, #20]
  402098:	42be      	cmp	r6, r7
  40209a:	4414      	add	r4, r2
  40209c:	441c      	add	r4, r3
  40209e:	4633      	mov	r3, r6
  4020a0:	bfa8      	it	ge
  4020a2:	463b      	movge	r3, r7
  4020a4:	42a3      	cmp	r3, r4
  4020a6:	bfa8      	it	ge
  4020a8:	4623      	movge	r3, r4
  4020aa:	2b00      	cmp	r3, #0
  4020ac:	bfc2      	ittt	gt
  4020ae:	1aff      	subgt	r7, r7, r3
  4020b0:	1ae4      	subgt	r4, r4, r3
  4020b2:	1af6      	subgt	r6, r6, r3
  4020b4:	9b0e      	ldr	r3, [sp, #56]	; 0x38
  4020b6:	b1bb      	cbz	r3, 4020e8 <_strtod_l+0x740>
  4020b8:	461a      	mov	r2, r3
  4020ba:	9904      	ldr	r1, [sp, #16]
  4020bc:	4640      	mov	r0, r8
  4020be:	f001 f827 	bl	403110 <__pow5mult>
  4020c2:	9004      	str	r0, [sp, #16]
  4020c4:	2800      	cmp	r0, #0
  4020c6:	f43f aec2 	beq.w	401e4e <_strtod_l+0x4a6>
  4020ca:	4601      	mov	r1, r0
  4020cc:	9a1a      	ldr	r2, [sp, #104]	; 0x68
  4020ce:	4640      	mov	r0, r8
  4020d0:	f000 ff91 	bl	402ff6 <__multiply>
  4020d4:	9008      	str	r0, [sp, #32]
  4020d6:	2800      	cmp	r0, #0
  4020d8:	f43f aeb9 	beq.w	401e4e <_strtod_l+0x4a6>
  4020dc:	991a      	ldr	r1, [sp, #104]	; 0x68
  4020de:	4640      	mov	r0, r8
  4020e0:	f000 fea2 	bl	402e28 <_Bfree>
  4020e4:	9b08      	ldr	r3, [sp, #32]
  4020e6:	931a      	str	r3, [sp, #104]	; 0x68
  4020e8:	2f00      	cmp	r7, #0
  4020ea:	dc6f      	bgt.n	4021cc <_strtod_l+0x824>
  4020ec:	9b0f      	ldr	r3, [sp, #60]	; 0x3c
  4020ee:	2b00      	cmp	r3, #0
  4020f0:	d175      	bne.n	4021de <_strtod_l+0x836>
  4020f2:	2c00      	cmp	r4, #0
  4020f4:	dd08      	ble.n	402108 <_strtod_l+0x760>
  4020f6:	4622      	mov	r2, r4
  4020f8:	9906      	ldr	r1, [sp, #24]
  4020fa:	4640      	mov	r0, r8
  4020fc:	f001 f856 	bl	4031ac <__lshift>
  402100:	9006      	str	r0, [sp, #24]
  402102:	2800      	cmp	r0, #0
  402104:	f43f aea3 	beq.w	401e4e <_strtod_l+0x4a6>
  402108:	2e00      	cmp	r6, #0
  40210a:	dd08      	ble.n	40211e <_strtod_l+0x776>
  40210c:	4632      	mov	r2, r6
  40210e:	9904      	ldr	r1, [sp, #16]
  402110:	4640      	mov	r0, r8
  402112:	f001 f84b 	bl	4031ac <__lshift>
  402116:	9004      	str	r0, [sp, #16]
  402118:	2800      	cmp	r0, #0
  40211a:	f43f ae98 	beq.w	401e4e <_strtod_l+0x4a6>
  40211e:	9a06      	ldr	r2, [sp, #24]
  402120:	991a      	ldr	r1, [sp, #104]	; 0x68
  402122:	4640      	mov	r0, r8
  402124:	f001 f8ad 	bl	403282 <__mdiff>
  402128:	4681      	mov	r9, r0
  40212a:	2800      	cmp	r0, #0
  40212c:	f43f ae8f 	beq.w	401e4e <_strtod_l+0x4a6>
  402130:	2400      	movs	r4, #0
  402132:	68c3      	ldr	r3, [r0, #12]
  402134:	9904      	ldr	r1, [sp, #16]
  402136:	60c4      	str	r4, [r0, #12]
  402138:	9308      	str	r3, [sp, #32]
  40213a:	f001 f888 	bl	40324e <__mcmp>
  40213e:	42a0      	cmp	r0, r4
  402140:	da5a      	bge.n	4021f8 <_strtod_l+0x850>
  402142:	9b08      	ldr	r3, [sp, #32]
  402144:	b9f3      	cbnz	r3, 402184 <_strtod_l+0x7dc>
  402146:	f1ba 0f00 	cmp.w	sl, #0
  40214a:	d11b      	bne.n	402184 <_strtod_l+0x7dc>
  40214c:	f3cb 0313 	ubfx	r3, fp, #0, #20
  402150:	b9c3      	cbnz	r3, 402184 <_strtod_l+0x7dc>
  402152:	f02b 4300 	bic.w	r3, fp, #2147483648	; 0x80000000
  402156:	0d1b      	lsrs	r3, r3, #20
  402158:	051b      	lsls	r3, r3, #20
  40215a:	f1b3 6fd6 	cmp.w	r3, #112197632	; 0x6b00000
  40215e:	d911      	bls.n	402184 <_strtod_l+0x7dc>
  402160:	f8d9 3014 	ldr.w	r3, [r9, #20]
  402164:	b91b      	cbnz	r3, 40216e <_strtod_l+0x7c6>
  402166:	f8d9 3010 	ldr.w	r3, [r9, #16]
  40216a:	2b01      	cmp	r3, #1
  40216c:	dd0a      	ble.n	402184 <_strtod_l+0x7dc>
  40216e:	4649      	mov	r1, r9
  402170:	2201      	movs	r2, #1
  402172:	4640      	mov	r0, r8
  402174:	f001 f81a 	bl	4031ac <__lshift>
  402178:	9904      	ldr	r1, [sp, #16]
  40217a:	4681      	mov	r9, r0
  40217c:	f001 f867 	bl	40324e <__mcmp>
  402180:	2800      	cmp	r0, #0
  402182:	dc6a      	bgt.n	40225a <_strtod_l+0x8b2>
  402184:	9b05      	ldr	r3, [sp, #20]
  402186:	2b00      	cmp	r3, #0
  402188:	d174      	bne.n	402274 <_strtod_l+0x8cc>
  40218a:	e66b      	b.n	401e64 <_strtod_l+0x4bc>
  40218c:	07e2      	lsls	r2, r4, #31
  40218e:	d504      	bpl.n	40219a <_strtod_l+0x7f2>
  402190:	e9d6 2300 	ldrd	r2, r3, [r6]
  402194:	f001 fc66 	bl	403a64 <__aeabi_dmul>
  402198:	2301      	movs	r3, #1
  40219a:	1064      	asrs	r4, r4, #1
  40219c:	3608      	adds	r6, #8
  40219e:	e6ec      	b.n	401f7a <_strtod_l+0x5d2>
  4021a0:	f04f 32ff 	mov.w	r2, #4294967295
  4021a4:	fa02 f303 	lsl.w	r3, r2, r3
  4021a8:	ea03 0a0a 	and.w	sl, r3, sl
  4021ac:	e705      	b.n	401fba <_strtod_l+0x612>
  4021ae:	f1c5 457f 	rsb	r5, r5, #4278190080	; 0xff000000
  4021b2:	f505 057f 	add.w	r5, r5, #16711680	; 0xff0000
  4021b6:	f505 457b 	add.w	r5, r5, #64256	; 0xfb00
  4021ba:	35e2      	adds	r5, #226	; 0xe2
  4021bc:	fa07 f505 	lsl.w	r5, r7, r5
  4021c0:	9714      	str	r7, [sp, #80]	; 0x50
  4021c2:	e767      	b.n	402094 <_strtod_l+0x6ec>
  4021c4:	2301      	movs	r3, #1
  4021c6:	2500      	movs	r5, #0
  4021c8:	9314      	str	r3, [sp, #80]	; 0x50
  4021ca:	e763      	b.n	402094 <_strtod_l+0x6ec>
  4021cc:	463a      	mov	r2, r7
  4021ce:	991a      	ldr	r1, [sp, #104]	; 0x68
  4021d0:	4640      	mov	r0, r8
  4021d2:	f000 ffeb 	bl	4031ac <__lshift>
  4021d6:	901a      	str	r0, [sp, #104]	; 0x68
  4021d8:	2800      	cmp	r0, #0
  4021da:	d187      	bne.n	4020ec <_strtod_l+0x744>
  4021dc:	e637      	b.n	401e4e <_strtod_l+0x4a6>
  4021de:	9a0f      	ldr	r2, [sp, #60]	; 0x3c
  4021e0:	9906      	ldr	r1, [sp, #24]
  4021e2:	4640      	mov	r0, r8
  4021e4:	f000 ff94 	bl	403110 <__pow5mult>
  4021e8:	9006      	str	r0, [sp, #24]
  4021ea:	2800      	cmp	r0, #0
  4021ec:	d181      	bne.n	4020f2 <_strtod_l+0x74a>
  4021ee:	e62e      	b.n	401e4e <_strtod_l+0x4a6>
  4021f0:	00404340 	.word	0x00404340
  4021f4:	fffffc02 	.word	0xfffffc02
  4021f8:	f040 8086 	bne.w	402308 <_strtod_l+0x960>
  4021fc:	9a08      	ldr	r2, [sp, #32]
  4021fe:	f3cb 0313 	ubfx	r3, fp, #0, #20
  402202:	b332      	cbz	r2, 402252 <_strtod_l+0x8aa>
  402204:	4aac      	ldr	r2, [pc, #688]	; (4024b8 <_strtod_l+0xb10>)
  402206:	4293      	cmp	r3, r2
  402208:	4659      	mov	r1, fp
  40220a:	d152      	bne.n	4022b2 <_strtod_l+0x90a>
  40220c:	9b05      	ldr	r3, [sp, #20]
  40220e:	4650      	mov	r0, sl
  402210:	b1d3      	cbz	r3, 402248 <_strtod_l+0x8a0>
  402212:	4aaa      	ldr	r2, [pc, #680]	; (4024bc <_strtod_l+0xb14>)
  402214:	400a      	ands	r2, r1
  402216:	f1b2 6fd4 	cmp.w	r2, #111149056	; 0x6a00000
  40221a:	f04f 34ff 	mov.w	r4, #4294967295
  40221e:	d816      	bhi.n	40224e <_strtod_l+0x8a6>
  402220:	0d12      	lsrs	r2, r2, #20
  402222:	f1c2 036b 	rsb	r3, r2, #107	; 0x6b
  402226:	fa04 f303 	lsl.w	r3, r4, r3
  40222a:	4283      	cmp	r3, r0
  40222c:	d141      	bne.n	4022b2 <_strtod_l+0x90a>
  40222e:	4aa4      	ldr	r2, [pc, #656]	; (4024c0 <_strtod_l+0xb18>)
  402230:	4291      	cmp	r1, r2
  402232:	d102      	bne.n	40223a <_strtod_l+0x892>
  402234:	3301      	adds	r3, #1
  402236:	f43f ae0a 	beq.w	401e4e <_strtod_l+0x4a6>
  40223a:	4ba0      	ldr	r3, [pc, #640]	; (4024bc <_strtod_l+0xb14>)
  40223c:	400b      	ands	r3, r1
  40223e:	f503 1b80 	add.w	fp, r3, #1048576	; 0x100000
  402242:	f04f 0a00 	mov.w	sl, #0
  402246:	e79d      	b.n	402184 <_strtod_l+0x7dc>
  402248:	f04f 33ff 	mov.w	r3, #4294967295
  40224c:	e7ed      	b.n	40222a <_strtod_l+0x882>
  40224e:	4623      	mov	r3, r4
  402250:	e7eb      	b.n	40222a <_strtod_l+0x882>
  402252:	bb73      	cbnz	r3, 4022b2 <_strtod_l+0x90a>
  402254:	f1ba 0f00 	cmp.w	sl, #0
  402258:	d12b      	bne.n	4022b2 <_strtod_l+0x90a>
  40225a:	f02b 4300 	bic.w	r3, fp, #2147483648	; 0x80000000
  40225e:	9a05      	ldr	r2, [sp, #20]
  402260:	0d1b      	lsrs	r3, r3, #20
  402262:	051b      	lsls	r3, r3, #20
  402264:	b1e2      	cbz	r2, 4022a0 <_strtod_l+0x8f8>
  402266:	f1b3 6fd6 	cmp.w	r3, #112197632	; 0x6b00000
  40226a:	dc19      	bgt.n	4022a0 <_strtod_l+0x8f8>
  40226c:	f1b3 7f5c 	cmp.w	r3, #57671680	; 0x3700000
  402270:	f77f ae61 	ble.w	401f36 <_strtod_l+0x58e>
  402274:	4b93      	ldr	r3, [pc, #588]	; (4024c4 <_strtod_l+0xb1c>)
  402276:	930d      	str	r3, [sp, #52]	; 0x34
  402278:	2300      	movs	r3, #0
  40227a:	930c      	str	r3, [sp, #48]	; 0x30
  40227c:	4650      	mov	r0, sl
  40227e:	4659      	mov	r1, fp
  402280:	e9dd 230c 	ldrd	r2, r3, [sp, #48]	; 0x30
  402284:	f001 fbee 	bl	403a64 <__aeabi_dmul>
  402288:	4682      	mov	sl, r0
  40228a:	468b      	mov	fp, r1
  40228c:	2900      	cmp	r1, #0
  40228e:	f47f ade9 	bne.w	401e64 <_strtod_l+0x4bc>
  402292:	2800      	cmp	r0, #0
  402294:	f47f ade6 	bne.w	401e64 <_strtod_l+0x4bc>
  402298:	2322      	movs	r3, #34	; 0x22
  40229a:	f8c8 3000 	str.w	r3, [r8]
  40229e:	e5e1      	b.n	401e64 <_strtod_l+0x4bc>
  4022a0:	f5a3 1380 	sub.w	r3, r3, #1048576	; 0x100000
  4022a4:	ea6f 5b13 	mvn.w	fp, r3, lsr #20
  4022a8:	ea6f 5b0b 	mvn.w	fp, fp, lsl #20
  4022ac:	f04f 3aff 	mov.w	sl, #4294967295
  4022b0:	e768      	b.n	402184 <_strtod_l+0x7dc>
  4022b2:	b19d      	cbz	r5, 4022dc <_strtod_l+0x934>
  4022b4:	ea15 0f0b 	tst.w	r5, fp
  4022b8:	f43f af64 	beq.w	402184 <_strtod_l+0x7dc>
  4022bc:	9b08      	ldr	r3, [sp, #32]
  4022be:	9a05      	ldr	r2, [sp, #20]
  4022c0:	4650      	mov	r0, sl
  4022c2:	4659      	mov	r1, fp
  4022c4:	b173      	cbz	r3, 4022e4 <_strtod_l+0x93c>
  4022c6:	f7ff fb4c 	bl	401962 <sulp>
  4022ca:	4602      	mov	r2, r0
  4022cc:	460b      	mov	r3, r1
  4022ce:	e9dd 010a 	ldrd	r0, r1, [sp, #40]	; 0x28
  4022d2:	f001 fa15 	bl	403700 <__adddf3>
  4022d6:	4682      	mov	sl, r0
  4022d8:	468b      	mov	fp, r1
  4022da:	e753      	b.n	402184 <_strtod_l+0x7dc>
  4022dc:	9b14      	ldr	r3, [sp, #80]	; 0x50
  4022de:	ea13 0f0a 	tst.w	r3, sl
  4022e2:	e7e9      	b.n	4022b8 <_strtod_l+0x910>
  4022e4:	f7ff fb3d 	bl	401962 <sulp>
  4022e8:	4602      	mov	r2, r0
  4022ea:	460b      	mov	r3, r1
  4022ec:	e9dd 010a 	ldrd	r0, r1, [sp, #40]	; 0x28
  4022f0:	f001 fa04 	bl	4036fc <__aeabi_dsub>
  4022f4:	2200      	movs	r2, #0
  4022f6:	2300      	movs	r3, #0
  4022f8:	4682      	mov	sl, r0
  4022fa:	468b      	mov	fp, r1
  4022fc:	f001 fe1a 	bl	403f34 <__aeabi_dcmpeq>
  402300:	2800      	cmp	r0, #0
  402302:	f47f ae18 	bne.w	401f36 <_strtod_l+0x58e>
  402306:	e73d      	b.n	402184 <_strtod_l+0x7dc>
  402308:	9904      	ldr	r1, [sp, #16]
  40230a:	4648      	mov	r0, r9
  40230c:	f001 f8dd 	bl	4034ca <__ratio>
  402310:	2200      	movs	r2, #0
  402312:	f04f 4380 	mov.w	r3, #1073741824	; 0x40000000
  402316:	4606      	mov	r6, r0
  402318:	460f      	mov	r7, r1
  40231a:	f001 fe1f 	bl	403f5c <__aeabi_dcmple>
  40231e:	2800      	cmp	r0, #0
  402320:	d070      	beq.n	402404 <_strtod_l+0xa5c>
  402322:	9b08      	ldr	r3, [sp, #32]
  402324:	2b00      	cmp	r3, #0
  402326:	d043      	beq.n	4023b0 <_strtod_l+0xa08>
  402328:	4f67      	ldr	r7, [pc, #412]	; (4024c8 <_strtod_l+0xb20>)
  40232a:	2600      	movs	r6, #0
  40232c:	4d66      	ldr	r5, [pc, #408]	; (4024c8 <_strtod_l+0xb20>)
  40232e:	4b63      	ldr	r3, [pc, #396]	; (4024bc <_strtod_l+0xb14>)
  402330:	ea0b 0303 	and.w	r3, fp, r3
  402334:	9314      	str	r3, [sp, #80]	; 0x50
  402336:	9a14      	ldr	r2, [sp, #80]	; 0x50
  402338:	4b64      	ldr	r3, [pc, #400]	; (4024cc <_strtod_l+0xb24>)
  40233a:	429a      	cmp	r2, r3
  40233c:	f040 80ce 	bne.w	4024dc <_strtod_l+0xb34>
  402340:	e9dd 230a 	ldrd	r2, r3, [sp, #40]	; 0x28
  402344:	f1ab 7b54 	sub.w	fp, fp, #55574528	; 0x3500000
  402348:	4650      	mov	r0, sl
  40234a:	4659      	mov	r1, fp
  40234c:	e9cd 230c 	strd	r2, r3, [sp, #48]	; 0x30
  402350:	f000 fff6 	bl	403340 <__ulp>
  402354:	4602      	mov	r2, r0
  402356:	460b      	mov	r3, r1
  402358:	4630      	mov	r0, r6
  40235a:	4639      	mov	r1, r7
  40235c:	f001 fb82 	bl	403a64 <__aeabi_dmul>
  402360:	4652      	mov	r2, sl
  402362:	465b      	mov	r3, fp
  402364:	f001 f9cc 	bl	403700 <__adddf3>
  402368:	4a54      	ldr	r2, [pc, #336]	; (4024bc <_strtod_l+0xb14>)
  40236a:	4b59      	ldr	r3, [pc, #356]	; (4024d0 <_strtod_l+0xb28>)
  40236c:	400a      	ands	r2, r1
  40236e:	429a      	cmp	r2, r3
  402370:	4682      	mov	sl, r0
  402372:	d95d      	bls.n	402430 <_strtod_l+0xa88>
  402374:	9a0d      	ldr	r2, [sp, #52]	; 0x34
  402376:	f103 7354 	add.w	r3, r3, #55574528	; 0x3500000
  40237a:	429a      	cmp	r2, r3
  40237c:	d103      	bne.n	402386 <_strtod_l+0x9de>
  40237e:	9b0c      	ldr	r3, [sp, #48]	; 0x30
  402380:	3301      	adds	r3, #1
  402382:	f43f ad64 	beq.w	401e4e <_strtod_l+0x4a6>
  402386:	f8df b138 	ldr.w	fp, [pc, #312]	; 4024c0 <_strtod_l+0xb18>
  40238a:	f04f 3aff 	mov.w	sl, #4294967295
  40238e:	991a      	ldr	r1, [sp, #104]	; 0x68
  402390:	4640      	mov	r0, r8
  402392:	f000 fd49 	bl	402e28 <_Bfree>
  402396:	9906      	ldr	r1, [sp, #24]
  402398:	4640      	mov	r0, r8
  40239a:	f000 fd45 	bl	402e28 <_Bfree>
  40239e:	9904      	ldr	r1, [sp, #16]
  4023a0:	4640      	mov	r0, r8
  4023a2:	f000 fd41 	bl	402e28 <_Bfree>
  4023a6:	4649      	mov	r1, r9
  4023a8:	4640      	mov	r0, r8
  4023aa:	f000 fd3d 	bl	402e28 <_Bfree>
  4023ae:	e626      	b.n	401ffe <_strtod_l+0x656>
  4023b0:	f1ba 0f00 	cmp.w	sl, #0
  4023b4:	d118      	bne.n	4023e8 <_strtod_l+0xa40>
  4023b6:	f3cb 0313 	ubfx	r3, fp, #0, #20
  4023ba:	b9e3      	cbnz	r3, 4023f6 <_strtod_l+0xa4e>
  4023bc:	2200      	movs	r2, #0
  4023be:	4b42      	ldr	r3, [pc, #264]	; (4024c8 <_strtod_l+0xb20>)
  4023c0:	4630      	mov	r0, r6
  4023c2:	4639      	mov	r1, r7
  4023c4:	f001 fdc0 	bl	403f48 <__aeabi_dcmplt>
  4023c8:	b9c8      	cbnz	r0, 4023fe <_strtod_l+0xa56>
  4023ca:	2200      	movs	r2, #0
  4023cc:	4b41      	ldr	r3, [pc, #260]	; (4024d4 <_strtod_l+0xb2c>)
  4023ce:	4630      	mov	r0, r6
  4023d0:	4639      	mov	r1, r7
  4023d2:	f001 fb47 	bl	403a64 <__aeabi_dmul>
  4023d6:	4604      	mov	r4, r0
  4023d8:	460d      	mov	r5, r1
  4023da:	f105 4300 	add.w	r3, r5, #2147483648	; 0x80000000
  4023de:	9416      	str	r4, [sp, #88]	; 0x58
  4023e0:	9317      	str	r3, [sp, #92]	; 0x5c
  4023e2:	e9dd 6716 	ldrd	r6, r7, [sp, #88]	; 0x58
  4023e6:	e7a2      	b.n	40232e <_strtod_l+0x986>
  4023e8:	f1ba 0f01 	cmp.w	sl, #1
  4023ec:	d103      	bne.n	4023f6 <_strtod_l+0xa4e>
  4023ee:	f1bb 0f00 	cmp.w	fp, #0
  4023f2:	f43f ada0 	beq.w	401f36 <_strtod_l+0x58e>
  4023f6:	2600      	movs	r6, #0
  4023f8:	4f37      	ldr	r7, [pc, #220]	; (4024d8 <_strtod_l+0xb30>)
  4023fa:	2400      	movs	r4, #0
  4023fc:	e796      	b.n	40232c <_strtod_l+0x984>
  4023fe:	9c08      	ldr	r4, [sp, #32]
  402400:	4d34      	ldr	r5, [pc, #208]	; (4024d4 <_strtod_l+0xb2c>)
  402402:	e7ea      	b.n	4023da <_strtod_l+0xa32>
  402404:	4b33      	ldr	r3, [pc, #204]	; (4024d4 <_strtod_l+0xb2c>)
  402406:	2200      	movs	r2, #0
  402408:	4630      	mov	r0, r6
  40240a:	4639      	mov	r1, r7
  40240c:	f001 fb2a 	bl	403a64 <__aeabi_dmul>
  402410:	9b08      	ldr	r3, [sp, #32]
  402412:	4604      	mov	r4, r0
  402414:	460d      	mov	r5, r1
  402416:	b933      	cbnz	r3, 402426 <_strtod_l+0xa7e>
  402418:	f101 4300 	add.w	r3, r1, #2147483648	; 0x80000000
  40241c:	9010      	str	r0, [sp, #64]	; 0x40
  40241e:	9311      	str	r3, [sp, #68]	; 0x44
  402420:	e9dd 6710 	ldrd	r6, r7, [sp, #64]	; 0x40
  402424:	e783      	b.n	40232e <_strtod_l+0x986>
  402426:	4602      	mov	r2, r0
  402428:	460b      	mov	r3, r1
  40242a:	e9cd 2310 	strd	r2, r3, [sp, #64]	; 0x40
  40242e:	e7f7      	b.n	402420 <_strtod_l+0xa78>
  402430:	f101 7b54 	add.w	fp, r1, #55574528	; 0x3500000
  402434:	9b05      	ldr	r3, [sp, #20]
  402436:	2b00      	cmp	r3, #0
  402438:	d1a9      	bne.n	40238e <_strtod_l+0x9e6>
  40243a:	f02b 4300 	bic.w	r3, fp, #2147483648	; 0x80000000
  40243e:	0d1b      	lsrs	r3, r3, #20
  402440:	9a14      	ldr	r2, [sp, #80]	; 0x50
  402442:	051b      	lsls	r3, r3, #20
  402444:	429a      	cmp	r2, r3
  402446:	465e      	mov	r6, fp
  402448:	d1a1      	bne.n	40238e <_strtod_l+0x9e6>
  40244a:	4629      	mov	r1, r5
  40244c:	4620      	mov	r0, r4
  40244e:	f001 fdb9 	bl	403fc4 <__aeabi_d2iz>
  402452:	f001 faa1 	bl	403998 <__aeabi_i2d>
  402456:	460b      	mov	r3, r1
  402458:	4602      	mov	r2, r0
  40245a:	4629      	mov	r1, r5
  40245c:	4620      	mov	r0, r4
  40245e:	f001 f94d 	bl	4036fc <__aeabi_dsub>
  402462:	9b08      	ldr	r3, [sp, #32]
  402464:	4604      	mov	r4, r0
  402466:	460d      	mov	r5, r1
  402468:	b933      	cbnz	r3, 402478 <_strtod_l+0xad0>
  40246a:	f1ba 0f00 	cmp.w	sl, #0
  40246e:	d103      	bne.n	402478 <_strtod_l+0xad0>
  402470:	f3cb 0613 	ubfx	r6, fp, #0, #20
  402474:	2e00      	cmp	r6, #0
  402476:	d06c      	beq.n	402552 <_strtod_l+0xbaa>
  402478:	a30b      	add	r3, pc, #44	; (adr r3, 4024a8 <_strtod_l+0xb00>)
  40247a:	e9d3 2300 	ldrd	r2, r3, [r3]
  40247e:	4620      	mov	r0, r4
  402480:	4629      	mov	r1, r5
  402482:	f001 fd61 	bl	403f48 <__aeabi_dcmplt>
  402486:	2800      	cmp	r0, #0
  402488:	f47f acec 	bne.w	401e64 <_strtod_l+0x4bc>
  40248c:	a308      	add	r3, pc, #32	; (adr r3, 4024b0 <_strtod_l+0xb08>)
  40248e:	e9d3 2300 	ldrd	r2, r3, [r3]
  402492:	4620      	mov	r0, r4
  402494:	4629      	mov	r1, r5
  402496:	f001 fd75 	bl	403f84 <__aeabi_dcmpgt>
  40249a:	2800      	cmp	r0, #0
  40249c:	f43f af77 	beq.w	40238e <_strtod_l+0x9e6>
  4024a0:	e4e0      	b.n	401e64 <_strtod_l+0x4bc>
  4024a2:	bf00      	nop
  4024a4:	f3af 8000 	nop.w
  4024a8:	94a03595 	.word	0x94a03595
  4024ac:	3fdfffff 	.word	0x3fdfffff
  4024b0:	35afe535 	.word	0x35afe535
  4024b4:	3fe00000 	.word	0x3fe00000
  4024b8:	000fffff 	.word	0x000fffff
  4024bc:	7ff00000 	.word	0x7ff00000
  4024c0:	7fefffff 	.word	0x7fefffff
  4024c4:	39500000 	.word	0x39500000
  4024c8:	3ff00000 	.word	0x3ff00000
  4024cc:	7fe00000 	.word	0x7fe00000
  4024d0:	7c9fffff 	.word	0x7c9fffff
  4024d4:	3fe00000 	.word	0x3fe00000
  4024d8:	bff00000 	.word	0xbff00000
  4024dc:	9b05      	ldr	r3, [sp, #20]
  4024de:	b313      	cbz	r3, 402526 <_strtod_l+0xb7e>
  4024e0:	9b14      	ldr	r3, [sp, #80]	; 0x50
  4024e2:	f1b3 6fd4 	cmp.w	r3, #111149056	; 0x6a00000
  4024e6:	d81e      	bhi.n	402526 <_strtod_l+0xb7e>
  4024e8:	a325      	add	r3, pc, #148	; (adr r3, 402580 <_strtod_l+0xbd8>)
  4024ea:	e9d3 2300 	ldrd	r2, r3, [r3]
  4024ee:	4620      	mov	r0, r4
  4024f0:	4629      	mov	r1, r5
  4024f2:	f001 fd33 	bl	403f5c <__aeabi_dcmple>
  4024f6:	b190      	cbz	r0, 40251e <_strtod_l+0xb76>
  4024f8:	4629      	mov	r1, r5
  4024fa:	4620      	mov	r0, r4
  4024fc:	f001 fd8a 	bl	404014 <__aeabi_d2uiz>
  402500:	2800      	cmp	r0, #0
  402502:	bf08      	it	eq
  402504:	2001      	moveq	r0, #1
  402506:	f001 fa37 	bl	403978 <__aeabi_ui2d>
  40250a:	9b08      	ldr	r3, [sp, #32]
  40250c:	4604      	mov	r4, r0
  40250e:	460d      	mov	r5, r1
  402510:	b9d3      	cbnz	r3, 402548 <_strtod_l+0xba0>
  402512:	f101 4300 	add.w	r3, r1, #2147483648	; 0x80000000
  402516:	9012      	str	r0, [sp, #72]	; 0x48
  402518:	9313      	str	r3, [sp, #76]	; 0x4c
  40251a:	e9dd 6712 	ldrd	r6, r7, [sp, #72]	; 0x48
  40251e:	9a14      	ldr	r2, [sp, #80]	; 0x50
  402520:	f107 63d6 	add.w	r3, r7, #112197632	; 0x6b00000
  402524:	1a9f      	subs	r7, r3, r2
  402526:	e9dd 010a 	ldrd	r0, r1, [sp, #40]	; 0x28
  40252a:	f000 ff09 	bl	403340 <__ulp>
  40252e:	4602      	mov	r2, r0
  402530:	460b      	mov	r3, r1
  402532:	4630      	mov	r0, r6
  402534:	4639      	mov	r1, r7
  402536:	f001 fa95 	bl	403a64 <__aeabi_dmul>
  40253a:	e9dd 230a 	ldrd	r2, r3, [sp, #40]	; 0x28
  40253e:	f001 f8df 	bl	403700 <__adddf3>
  402542:	4682      	mov	sl, r0
  402544:	468b      	mov	fp, r1
  402546:	e775      	b.n	402434 <_strtod_l+0xa8c>
  402548:	4602      	mov	r2, r0
  40254a:	460b      	mov	r3, r1
  40254c:	e9cd 2312 	strd	r2, r3, [sp, #72]	; 0x48
  402550:	e7e3      	b.n	40251a <_strtod_l+0xb72>
  402552:	a30d      	add	r3, pc, #52	; (adr r3, 402588 <_strtod_l+0xbe0>)
  402554:	e9d3 2300 	ldrd	r2, r3, [r3]
  402558:	f001 fcf6 	bl	403f48 <__aeabi_dcmplt>
  40255c:	e79d      	b.n	40249a <_strtod_l+0xaf2>
  40255e:	2300      	movs	r3, #0
  402560:	9309      	str	r3, [sp, #36]	; 0x24
  402562:	9a15      	ldr	r2, [sp, #84]	; 0x54
  402564:	9b19      	ldr	r3, [sp, #100]	; 0x64
  402566:	6013      	str	r3, [r2, #0]
  402568:	f7ff ba62 	b.w	401a30 <_strtod_l+0x88>
  40256c:	2b65      	cmp	r3, #101	; 0x65
  40256e:	f04f 0200 	mov.w	r2, #0
  402572:	f43f abb2 	beq.w	401cda <_strtod_l+0x332>
  402576:	4615      	mov	r5, r2
  402578:	2101      	movs	r1, #1
  40257a:	f7ff bad1 	b.w	401b20 <_strtod_l+0x178>
  40257e:	bf00      	nop
  402580:	ffc00000 	.word	0xffc00000
  402584:	41dfffff 	.word	0x41dfffff
  402588:	94a03595 	.word	0x94a03595
  40258c:	3fcfffff 	.word	0x3fcfffff

00402590 <strtof>:
  402590:	e92d 41f0 	stmdb	sp!, {r4, r5, r6, r7, r8, lr}
  402594:	4e21      	ldr	r6, [pc, #132]	; (40261c <strtof+0x8c>)
  402596:	4a22      	ldr	r2, [pc, #136]	; (402620 <strtof+0x90>)
  402598:	6834      	ldr	r4, [r6, #0]
  40259a:	6a23      	ldr	r3, [r4, #32]
  40259c:	2b00      	cmp	r3, #0
  40259e:	bf08      	it	eq
  4025a0:	4613      	moveq	r3, r2
  4025a2:	460a      	mov	r2, r1
  4025a4:	4601      	mov	r1, r0
  4025a6:	4620      	mov	r0, r4
  4025a8:	f7ff f9fe 	bl	4019a8 <_strtod_l>
  4025ac:	4605      	mov	r5, r0
  4025ae:	460c      	mov	r4, r1
  4025b0:	4602      	mov	r2, r0
  4025b2:	460b      	mov	r3, r1
  4025b4:	4628      	mov	r0, r5
  4025b6:	4621      	mov	r1, r4
  4025b8:	f001 fcee 	bl	403f98 <__aeabi_dcmpun>
  4025bc:	b120      	cbz	r0, 4025c8 <strtof+0x38>
  4025be:	2000      	movs	r0, #0
  4025c0:	e8bd 41f0 	ldmia.w	sp!, {r4, r5, r6, r7, r8, lr}
  4025c4:	f001 b860 	b.w	403688 <nanf>
  4025c8:	4621      	mov	r1, r4
  4025ca:	4628      	mov	r0, r5
  4025cc:	f001 fd42 	bl	404054 <__aeabi_d2f>
  4025d0:	f020 4800 	bic.w	r8, r0, #2147483648	; 0x80000000
  4025d4:	4607      	mov	r7, r0
  4025d6:	4913      	ldr	r1, [pc, #76]	; (402624 <strtof+0x94>)
  4025d8:	4640      	mov	r0, r8
  4025da:	f001 fe01 	bl	4041e0 <__aeabi_fcmpun>
  4025de:	b9c8      	cbnz	r0, 402614 <strtof+0x84>
  4025e0:	4910      	ldr	r1, [pc, #64]	; (402624 <strtof+0x94>)
  4025e2:	4640      	mov	r0, r8
  4025e4:	f001 fdde 	bl	4041a4 <__aeabi_fcmple>
  4025e8:	b9a0      	cbnz	r0, 402614 <strtof+0x84>
  4025ea:	f024 4400 	bic.w	r4, r4, #2147483648	; 0x80000000
  4025ee:	f04f 32ff 	mov.w	r2, #4294967295
  4025f2:	4b0d      	ldr	r3, [pc, #52]	; (402628 <strtof+0x98>)
  4025f4:	4628      	mov	r0, r5
  4025f6:	4621      	mov	r1, r4
  4025f8:	f001 fcce 	bl	403f98 <__aeabi_dcmpun>
  4025fc:	b938      	cbnz	r0, 40260e <strtof+0x7e>
  4025fe:	f04f 32ff 	mov.w	r2, #4294967295
  402602:	4b09      	ldr	r3, [pc, #36]	; (402628 <strtof+0x98>)
  402604:	4628      	mov	r0, r5
  402606:	4621      	mov	r1, r4
  402608:	f001 fca8 	bl	403f5c <__aeabi_dcmple>
  40260c:	b110      	cbz	r0, 402614 <strtof+0x84>
  40260e:	6833      	ldr	r3, [r6, #0]
  402610:	2222      	movs	r2, #34	; 0x22
  402612:	601a      	str	r2, [r3, #0]
  402614:	4638      	mov	r0, r7
  402616:	e8bd 81f0 	ldmia.w	sp!, {r4, r5, r6, r7, r8, pc}
  40261a:	bf00      	nop
  40261c:	2040003c 	.word	0x2040003c
  402620:	204000a0 	.word	0x204000a0
  402624:	7f7fffff 	.word	0x7f7fffff
  402628:	7fefffff 	.word	0x7fefffff

0040262c <_strtol_l.isra.0>:
  40262c:	e92d 4ff8 	stmdb	sp!, {r3, r4, r5, r6, r7, r8, r9, sl, fp, lr}
  402630:	4680      	mov	r8, r0
  402632:	4689      	mov	r9, r1
  402634:	4692      	mov	sl, r2
  402636:	461f      	mov	r7, r3
  402638:	468b      	mov	fp, r1
  40263a:	465d      	mov	r5, fp
  40263c:	980a      	ldr	r0, [sp, #40]	; 0x28
  40263e:	f815 4b01 	ldrb.w	r4, [r5], #1
  402642:	f000 fba6 	bl	402d92 <__locale_ctype_ptr_l>
  402646:	4420      	add	r0, r4
  402648:	7846      	ldrb	r6, [r0, #1]
  40264a:	f016 0608 	ands.w	r6, r6, #8
  40264e:	d10b      	bne.n	402668 <_strtol_l.isra.0+0x3c>
  402650:	2c2d      	cmp	r4, #45	; 0x2d
  402652:	d10b      	bne.n	40266c <_strtol_l.isra.0+0x40>
  402654:	782c      	ldrb	r4, [r5, #0]
  402656:	2601      	movs	r6, #1
  402658:	f10b 0502 	add.w	r5, fp, #2
  40265c:	b167      	cbz	r7, 402678 <_strtol_l.isra.0+0x4c>
  40265e:	2f10      	cmp	r7, #16
  402660:	d114      	bne.n	40268c <_strtol_l.isra.0+0x60>
  402662:	2c30      	cmp	r4, #48	; 0x30
  402664:	d00a      	beq.n	40267c <_strtol_l.isra.0+0x50>
  402666:	e011      	b.n	40268c <_strtol_l.isra.0+0x60>
  402668:	46ab      	mov	fp, r5
  40266a:	e7e6      	b.n	40263a <_strtol_l.isra.0+0xe>
  40266c:	2c2b      	cmp	r4, #43	; 0x2b
  40266e:	bf04      	itt	eq
  402670:	782c      	ldrbeq	r4, [r5, #0]
  402672:	f10b 0502 	addeq.w	r5, fp, #2
  402676:	e7f1      	b.n	40265c <_strtol_l.isra.0+0x30>
  402678:	2c30      	cmp	r4, #48	; 0x30
  40267a:	d127      	bne.n	4026cc <_strtol_l.isra.0+0xa0>
  40267c:	782b      	ldrb	r3, [r5, #0]
  40267e:	f003 03df 	and.w	r3, r3, #223	; 0xdf
  402682:	2b58      	cmp	r3, #88	; 0x58
  402684:	d14b      	bne.n	40271e <_strtol_l.isra.0+0xf2>
  402686:	786c      	ldrb	r4, [r5, #1]
  402688:	2710      	movs	r7, #16
  40268a:	3502      	adds	r5, #2
  40268c:	2e00      	cmp	r6, #0
  40268e:	bf0c      	ite	eq
  402690:	f06f 4100 	mvneq.w	r1, #2147483648	; 0x80000000
  402694:	f04f 4100 	movne.w	r1, #2147483648	; 0x80000000
  402698:	2200      	movs	r2, #0
  40269a:	fbb1 fef7 	udiv	lr, r1, r7
  40269e:	4610      	mov	r0, r2
  4026a0:	fb07 1c1e 	mls	ip, r7, lr, r1
  4026a4:	f1a4 0330 	sub.w	r3, r4, #48	; 0x30
  4026a8:	2b09      	cmp	r3, #9
  4026aa:	d811      	bhi.n	4026d0 <_strtol_l.isra.0+0xa4>
  4026ac:	461c      	mov	r4, r3
  4026ae:	42a7      	cmp	r7, r4
  4026b0:	dd1d      	ble.n	4026ee <_strtol_l.isra.0+0xc2>
  4026b2:	1c53      	adds	r3, r2, #1
  4026b4:	d007      	beq.n	4026c6 <_strtol_l.isra.0+0x9a>
  4026b6:	4586      	cmp	lr, r0
  4026b8:	d316      	bcc.n	4026e8 <_strtol_l.isra.0+0xbc>
  4026ba:	d101      	bne.n	4026c0 <_strtol_l.isra.0+0x94>
  4026bc:	45a4      	cmp	ip, r4
  4026be:	db13      	blt.n	4026e8 <_strtol_l.isra.0+0xbc>
  4026c0:	fb00 4007 	mla	r0, r0, r7, r4
  4026c4:	2201      	movs	r2, #1
  4026c6:	f815 4b01 	ldrb.w	r4, [r5], #1
  4026ca:	e7eb      	b.n	4026a4 <_strtol_l.isra.0+0x78>
  4026cc:	270a      	movs	r7, #10
  4026ce:	e7dd      	b.n	40268c <_strtol_l.isra.0+0x60>
  4026d0:	f1a4 0341 	sub.w	r3, r4, #65	; 0x41
  4026d4:	2b19      	cmp	r3, #25
  4026d6:	d801      	bhi.n	4026dc <_strtol_l.isra.0+0xb0>
  4026d8:	3c37      	subs	r4, #55	; 0x37
  4026da:	e7e8      	b.n	4026ae <_strtol_l.isra.0+0x82>
  4026dc:	f1a4 0361 	sub.w	r3, r4, #97	; 0x61
  4026e0:	2b19      	cmp	r3, #25
  4026e2:	d804      	bhi.n	4026ee <_strtol_l.isra.0+0xc2>
  4026e4:	3c57      	subs	r4, #87	; 0x57
  4026e6:	e7e2      	b.n	4026ae <_strtol_l.isra.0+0x82>
  4026e8:	f04f 32ff 	mov.w	r2, #4294967295
  4026ec:	e7eb      	b.n	4026c6 <_strtol_l.isra.0+0x9a>
  4026ee:	1c53      	adds	r3, r2, #1
  4026f0:	d108      	bne.n	402704 <_strtol_l.isra.0+0xd8>
  4026f2:	2322      	movs	r3, #34	; 0x22
  4026f4:	f8c8 3000 	str.w	r3, [r8]
  4026f8:	4608      	mov	r0, r1
  4026fa:	f1ba 0f00 	cmp.w	sl, #0
  4026fe:	d107      	bne.n	402710 <_strtol_l.isra.0+0xe4>
  402700:	e8bd 8ff8 	ldmia.w	sp!, {r3, r4, r5, r6, r7, r8, r9, sl, fp, pc}
  402704:	b106      	cbz	r6, 402708 <_strtol_l.isra.0+0xdc>
  402706:	4240      	negs	r0, r0
  402708:	f1ba 0f00 	cmp.w	sl, #0
  40270c:	d00c      	beq.n	402728 <_strtol_l.isra.0+0xfc>
  40270e:	b122      	cbz	r2, 40271a <_strtol_l.isra.0+0xee>
  402710:	3d01      	subs	r5, #1
  402712:	f8ca 5000 	str.w	r5, [sl]
  402716:	e8bd 8ff8 	ldmia.w	sp!, {r3, r4, r5, r6, r7, r8, r9, sl, fp, pc}
  40271a:	464d      	mov	r5, r9
  40271c:	e7f9      	b.n	402712 <_strtol_l.isra.0+0xe6>
  40271e:	2430      	movs	r4, #48	; 0x30
  402720:	2f00      	cmp	r7, #0
  402722:	d1b3      	bne.n	40268c <_strtol_l.isra.0+0x60>
  402724:	2708      	movs	r7, #8
  402726:	e7b1      	b.n	40268c <_strtol_l.isra.0+0x60>
  402728:	e8bd 8ff8 	ldmia.w	sp!, {r3, r4, r5, r6, r7, r8, r9, sl, fp, pc}

0040272c <strtol>:
  40272c:	4b08      	ldr	r3, [pc, #32]	; (402750 <strtol+0x24>)
  40272e:	b537      	push	{r0, r1, r2, r4, r5, lr}
  402730:	681c      	ldr	r4, [r3, #0]
  402732:	4d08      	ldr	r5, [pc, #32]	; (402754 <strtol+0x28>)
  402734:	6a23      	ldr	r3, [r4, #32]
  402736:	2b00      	cmp	r3, #0
  402738:	bf08      	it	eq
  40273a:	462b      	moveq	r3, r5
  40273c:	9300      	str	r3, [sp, #0]
  40273e:	4613      	mov	r3, r2
  402740:	460a      	mov	r2, r1
  402742:	4601      	mov	r1, r0
  402744:	4620      	mov	r0, r4
  402746:	f7ff ff71 	bl	40262c <_strtol_l.isra.0>
  40274a:	b003      	add	sp, #12
  40274c:	bd30      	pop	{r4, r5, pc}
  40274e:	bf00      	nop
  402750:	2040003c 	.word	0x2040003c
  402754:	204000a0 	.word	0x204000a0

00402758 <rshift>:
  402758:	b5f0      	push	{r4, r5, r6, r7, lr}
  40275a:	6906      	ldr	r6, [r0, #16]
  40275c:	114b      	asrs	r3, r1, #5
  40275e:	42b3      	cmp	r3, r6
  402760:	f100 0514 	add.w	r5, r0, #20
  402764:	da2b      	bge.n	4027be <rshift+0x66>
  402766:	f011 011f 	ands.w	r1, r1, #31
  40276a:	eb05 0686 	add.w	r6, r5, r6, lsl #2
  40276e:	eb05 0283 	add.w	r2, r5, r3, lsl #2
  402772:	d108      	bne.n	402786 <rshift+0x2e>
  402774:	4629      	mov	r1, r5
  402776:	42b2      	cmp	r2, r6
  402778:	460b      	mov	r3, r1
  40277a:	d210      	bcs.n	40279e <rshift+0x46>
  40277c:	f852 3b04 	ldr.w	r3, [r2], #4
  402780:	f841 3b04 	str.w	r3, [r1], #4
  402784:	e7f7      	b.n	402776 <rshift+0x1e>
  402786:	f855 4023 	ldr.w	r4, [r5, r3, lsl #2]
  40278a:	f1c1 0e20 	rsb	lr, r1, #32
  40278e:	3204      	adds	r2, #4
  402790:	40cc      	lsrs	r4, r1
  402792:	462b      	mov	r3, r5
  402794:	42b2      	cmp	r2, r6
  402796:	d308      	bcc.n	4027aa <rshift+0x52>
  402798:	601c      	str	r4, [r3, #0]
  40279a:	b104      	cbz	r4, 40279e <rshift+0x46>
  40279c:	3304      	adds	r3, #4
  40279e:	1b5b      	subs	r3, r3, r5
  4027a0:	109b      	asrs	r3, r3, #2
  4027a2:	6103      	str	r3, [r0, #16]
  4027a4:	b903      	cbnz	r3, 4027a8 <rshift+0x50>
  4027a6:	6143      	str	r3, [r0, #20]
  4027a8:	bdf0      	pop	{r4, r5, r6, r7, pc}
  4027aa:	6817      	ldr	r7, [r2, #0]
  4027ac:	fa07 f70e 	lsl.w	r7, r7, lr
  4027b0:	433c      	orrs	r4, r7
  4027b2:	f843 4b04 	str.w	r4, [r3], #4
  4027b6:	f852 4b04 	ldr.w	r4, [r2], #4
  4027ba:	40cc      	lsrs	r4, r1
  4027bc:	e7ea      	b.n	402794 <rshift+0x3c>
  4027be:	462b      	mov	r3, r5
  4027c0:	e7ed      	b.n	40279e <rshift+0x46>

004027c2 <__hexdig_fun>:
  4027c2:	f1a0 0330 	sub.w	r3, r0, #48	; 0x30
  4027c6:	2b09      	cmp	r3, #9
  4027c8:	d802      	bhi.n	4027d0 <__hexdig_fun+0xe>
  4027ca:	3820      	subs	r0, #32
  4027cc:	b2c0      	uxtb	r0, r0
  4027ce:	4770      	bx	lr
  4027d0:	f1a0 0361 	sub.w	r3, r0, #97	; 0x61
  4027d4:	2b05      	cmp	r3, #5
  4027d6:	d801      	bhi.n	4027dc <__hexdig_fun+0x1a>
  4027d8:	3847      	subs	r0, #71	; 0x47
  4027da:	e7f7      	b.n	4027cc <__hexdig_fun+0xa>
  4027dc:	f1a0 0341 	sub.w	r3, r0, #65	; 0x41
  4027e0:	2b05      	cmp	r3, #5
  4027e2:	d801      	bhi.n	4027e8 <__hexdig_fun+0x26>
  4027e4:	3827      	subs	r0, #39	; 0x27
  4027e6:	e7f1      	b.n	4027cc <__hexdig_fun+0xa>
  4027e8:	2000      	movs	r0, #0
  4027ea:	4770      	bx	lr

004027ec <__gethex>:
  4027ec:	e92d 4ff0 	stmdb	sp!, {r4, r5, r6, r7, r8, r9, sl, fp, lr}
  4027f0:	b08b      	sub	sp, #44	; 0x2c
  4027f2:	468a      	mov	sl, r1
  4027f4:	9002      	str	r0, [sp, #8]
  4027f6:	9816      	ldr	r0, [sp, #88]	; 0x58
  4027f8:	9306      	str	r3, [sp, #24]
  4027fa:	4690      	mov	r8, r2
  4027fc:	f000 facc 	bl	402d98 <__localeconv_l>
  402800:	6803      	ldr	r3, [r0, #0]
  402802:	9303      	str	r3, [sp, #12]
  402804:	4618      	mov	r0, r3
  402806:	f000 ff43 	bl	403690 <strlen>
  40280a:	9b03      	ldr	r3, [sp, #12]
  40280c:	9001      	str	r0, [sp, #4]
  40280e:	4403      	add	r3, r0
  402810:	f04f 0b00 	mov.w	fp, #0
  402814:	f813 3c01 	ldrb.w	r3, [r3, #-1]
  402818:	9307      	str	r3, [sp, #28]
  40281a:	f8da 3000 	ldr.w	r3, [sl]
  40281e:	3302      	adds	r3, #2
  402820:	461f      	mov	r7, r3
  402822:	f813 0b01 	ldrb.w	r0, [r3], #1
  402826:	2830      	cmp	r0, #48	; 0x30
  402828:	d06c      	beq.n	402904 <__gethex+0x118>
  40282a:	f7ff ffca 	bl	4027c2 <__hexdig_fun>
  40282e:	4604      	mov	r4, r0
  402830:	2800      	cmp	r0, #0
  402832:	d16a      	bne.n	40290a <__gethex+0x11e>
  402834:	9a01      	ldr	r2, [sp, #4]
  402836:	9903      	ldr	r1, [sp, #12]
  402838:	4638      	mov	r0, r7
  40283a:	f000 ff31 	bl	4036a0 <strncmp>
  40283e:	2800      	cmp	r0, #0
  402840:	d166      	bne.n	402910 <__gethex+0x124>
  402842:	9b01      	ldr	r3, [sp, #4]
  402844:	5cf8      	ldrb	r0, [r7, r3]
  402846:	18fe      	adds	r6, r7, r3
  402848:	f7ff ffbb 	bl	4027c2 <__hexdig_fun>
  40284c:	2800      	cmp	r0, #0
  40284e:	d062      	beq.n	402916 <__gethex+0x12a>
  402850:	4633      	mov	r3, r6
  402852:	7818      	ldrb	r0, [r3, #0]
  402854:	2830      	cmp	r0, #48	; 0x30
  402856:	461f      	mov	r7, r3
  402858:	f103 0301 	add.w	r3, r3, #1
  40285c:	d0f9      	beq.n	402852 <__gethex+0x66>
  40285e:	f7ff ffb0 	bl	4027c2 <__hexdig_fun>
  402862:	fab0 f580 	clz	r5, r0
  402866:	096d      	lsrs	r5, r5, #5
  402868:	4634      	mov	r4, r6
  40286a:	f04f 0b01 	mov.w	fp, #1
  40286e:	463a      	mov	r2, r7
  402870:	4616      	mov	r6, r2
  402872:	3201      	adds	r2, #1
  402874:	7830      	ldrb	r0, [r6, #0]
  402876:	f7ff ffa4 	bl	4027c2 <__hexdig_fun>
  40287a:	2800      	cmp	r0, #0
  40287c:	d1f8      	bne.n	402870 <__gethex+0x84>
  40287e:	9a01      	ldr	r2, [sp, #4]
  402880:	9903      	ldr	r1, [sp, #12]
  402882:	4630      	mov	r0, r6
  402884:	f000 ff0c 	bl	4036a0 <strncmp>
  402888:	b950      	cbnz	r0, 4028a0 <__gethex+0xb4>
  40288a:	b954      	cbnz	r4, 4028a2 <__gethex+0xb6>
  40288c:	9b01      	ldr	r3, [sp, #4]
  40288e:	18f4      	adds	r4, r6, r3
  402890:	4622      	mov	r2, r4
  402892:	4616      	mov	r6, r2
  402894:	3201      	adds	r2, #1
  402896:	7830      	ldrb	r0, [r6, #0]
  402898:	f7ff ff93 	bl	4027c2 <__hexdig_fun>
  40289c:	2800      	cmp	r0, #0
  40289e:	d1f8      	bne.n	402892 <__gethex+0xa6>
  4028a0:	b10c      	cbz	r4, 4028a6 <__gethex+0xba>
  4028a2:	1ba4      	subs	r4, r4, r6
  4028a4:	00a4      	lsls	r4, r4, #2
  4028a6:	7833      	ldrb	r3, [r6, #0]
  4028a8:	2b50      	cmp	r3, #80	; 0x50
  4028aa:	d001      	beq.n	4028b0 <__gethex+0xc4>
  4028ac:	2b70      	cmp	r3, #112	; 0x70
  4028ae:	d140      	bne.n	402932 <__gethex+0x146>
  4028b0:	7873      	ldrb	r3, [r6, #1]
  4028b2:	2b2b      	cmp	r3, #43	; 0x2b
  4028b4:	d035      	beq.n	402922 <__gethex+0x136>
  4028b6:	2b2d      	cmp	r3, #45	; 0x2d
  4028b8:	d02f      	beq.n	40291a <__gethex+0x12e>
  4028ba:	1c71      	adds	r1, r6, #1
  4028bc:	f04f 0900 	mov.w	r9, #0
  4028c0:	7808      	ldrb	r0, [r1, #0]
  4028c2:	f7ff ff7e 	bl	4027c2 <__hexdig_fun>
  4028c6:	1e43      	subs	r3, r0, #1
  4028c8:	b2db      	uxtb	r3, r3
  4028ca:	2b18      	cmp	r3, #24
  4028cc:	d831      	bhi.n	402932 <__gethex+0x146>
  4028ce:	f1a0 0210 	sub.w	r2, r0, #16
  4028d2:	f811 0f01 	ldrb.w	r0, [r1, #1]!
  4028d6:	f7ff ff74 	bl	4027c2 <__hexdig_fun>
  4028da:	1e43      	subs	r3, r0, #1
  4028dc:	b2db      	uxtb	r3, r3
  4028de:	2b18      	cmp	r3, #24
  4028e0:	d922      	bls.n	402928 <__gethex+0x13c>
  4028e2:	f1b9 0f00 	cmp.w	r9, #0
  4028e6:	d000      	beq.n	4028ea <__gethex+0xfe>
  4028e8:	4252      	negs	r2, r2
  4028ea:	4414      	add	r4, r2
  4028ec:	f8ca 1000 	str.w	r1, [sl]
  4028f0:	b30d      	cbz	r5, 402936 <__gethex+0x14a>
  4028f2:	f1bb 0f00 	cmp.w	fp, #0
  4028f6:	bf14      	ite	ne
  4028f8:	2700      	movne	r7, #0
  4028fa:	2706      	moveq	r7, #6
  4028fc:	4638      	mov	r0, r7
  4028fe:	b00b      	add	sp, #44	; 0x2c
  402900:	e8bd 8ff0 	ldmia.w	sp!, {r4, r5, r6, r7, r8, r9, sl, fp, pc}
  402904:	f10b 0b01 	add.w	fp, fp, #1
  402908:	e78a      	b.n	402820 <__gethex+0x34>
  40290a:	2500      	movs	r5, #0
  40290c:	462c      	mov	r4, r5
  40290e:	e7ae      	b.n	40286e <__gethex+0x82>
  402910:	463e      	mov	r6, r7
  402912:	2501      	movs	r5, #1
  402914:	e7c7      	b.n	4028a6 <__gethex+0xba>
  402916:	4604      	mov	r4, r0
  402918:	e7fb      	b.n	402912 <__gethex+0x126>
  40291a:	f04f 0901 	mov.w	r9, #1
  40291e:	1cb1      	adds	r1, r6, #2
  402920:	e7ce      	b.n	4028c0 <__gethex+0xd4>
  402922:	f04f 0900 	mov.w	r9, #0
  402926:	e7fa      	b.n	40291e <__gethex+0x132>
  402928:	230a      	movs	r3, #10
  40292a:	fb03 0202 	mla	r2, r3, r2, r0
  40292e:	3a10      	subs	r2, #16
  402930:	e7cf      	b.n	4028d2 <__gethex+0xe6>
  402932:	4631      	mov	r1, r6
  402934:	e7da      	b.n	4028ec <__gethex+0x100>
  402936:	1bf3      	subs	r3, r6, r7
  402938:	3b01      	subs	r3, #1
  40293a:	4629      	mov	r1, r5
  40293c:	2b07      	cmp	r3, #7
  40293e:	dc49      	bgt.n	4029d4 <__gethex+0x1e8>
  402940:	9802      	ldr	r0, [sp, #8]
  402942:	f000 fa3d 	bl	402dc0 <_Balloc>
  402946:	9b01      	ldr	r3, [sp, #4]
  402948:	f100 0914 	add.w	r9, r0, #20
  40294c:	f04f 0b00 	mov.w	fp, #0
  402950:	f1c3 0301 	rsb	r3, r3, #1
  402954:	4605      	mov	r5, r0
  402956:	f8cd 9010 	str.w	r9, [sp, #16]
  40295a:	46da      	mov	sl, fp
  40295c:	9308      	str	r3, [sp, #32]
  40295e:	42b7      	cmp	r7, r6
  402960:	d33b      	bcc.n	4029da <__gethex+0x1ee>
  402962:	9804      	ldr	r0, [sp, #16]
  402964:	f840 ab04 	str.w	sl, [r0], #4
  402968:	eba0 0009 	sub.w	r0, r0, r9
  40296c:	1080      	asrs	r0, r0, #2
  40296e:	6128      	str	r0, [r5, #16]
  402970:	0147      	lsls	r7, r0, #5
  402972:	4650      	mov	r0, sl
  402974:	f000 fae8 	bl	402f48 <__hi0bits>
  402978:	f8d8 6000 	ldr.w	r6, [r8]
  40297c:	1a3f      	subs	r7, r7, r0
  40297e:	42b7      	cmp	r7, r6
  402980:	dd64      	ble.n	402a4c <__gethex+0x260>
  402982:	1bbf      	subs	r7, r7, r6
  402984:	4639      	mov	r1, r7
  402986:	4628      	mov	r0, r5
  402988:	f000 fde1 	bl	40354e <__any_on>
  40298c:	4682      	mov	sl, r0
  40298e:	b178      	cbz	r0, 4029b0 <__gethex+0x1c4>
  402990:	1e7b      	subs	r3, r7, #1
  402992:	1159      	asrs	r1, r3, #5
  402994:	f003 021f 	and.w	r2, r3, #31
  402998:	f04f 0a01 	mov.w	sl, #1
  40299c:	f859 1021 	ldr.w	r1, [r9, r1, lsl #2]
  4029a0:	fa0a f202 	lsl.w	r2, sl, r2
  4029a4:	420a      	tst	r2, r1
  4029a6:	d003      	beq.n	4029b0 <__gethex+0x1c4>
  4029a8:	4553      	cmp	r3, sl
  4029aa:	dc46      	bgt.n	402a3a <__gethex+0x24e>
  4029ac:	f04f 0a02 	mov.w	sl, #2
  4029b0:	4639      	mov	r1, r7
  4029b2:	4628      	mov	r0, r5
  4029b4:	f7ff fed0 	bl	402758 <rshift>
  4029b8:	443c      	add	r4, r7
  4029ba:	f8d8 3008 	ldr.w	r3, [r8, #8]
  4029be:	429c      	cmp	r4, r3
  4029c0:	dd52      	ble.n	402a68 <__gethex+0x27c>
  4029c2:	4629      	mov	r1, r5
  4029c4:	9802      	ldr	r0, [sp, #8]
  4029c6:	f000 fa2f 	bl	402e28 <_Bfree>
  4029ca:	9a14      	ldr	r2, [sp, #80]	; 0x50
  4029cc:	2300      	movs	r3, #0
  4029ce:	6013      	str	r3, [r2, #0]
  4029d0:	27a3      	movs	r7, #163	; 0xa3
  4029d2:	e793      	b.n	4028fc <__gethex+0x110>
  4029d4:	3101      	adds	r1, #1
  4029d6:	105b      	asrs	r3, r3, #1
  4029d8:	e7b0      	b.n	40293c <__gethex+0x150>
  4029da:	1e73      	subs	r3, r6, #1
  4029dc:	9305      	str	r3, [sp, #20]
  4029de:	9a07      	ldr	r2, [sp, #28]
  4029e0:	f816 3c01 	ldrb.w	r3, [r6, #-1]
  4029e4:	4293      	cmp	r3, r2
  4029e6:	d018      	beq.n	402a1a <__gethex+0x22e>
  4029e8:	f1bb 0f20 	cmp.w	fp, #32
  4029ec:	d107      	bne.n	4029fe <__gethex+0x212>
  4029ee:	9b04      	ldr	r3, [sp, #16]
  4029f0:	f8c3 a000 	str.w	sl, [r3]
  4029f4:	3304      	adds	r3, #4
  4029f6:	f04f 0a00 	mov.w	sl, #0
  4029fa:	9304      	str	r3, [sp, #16]
  4029fc:	46d3      	mov	fp, sl
  4029fe:	f816 0c01 	ldrb.w	r0, [r6, #-1]
  402a02:	f7ff fede 	bl	4027c2 <__hexdig_fun>
  402a06:	f000 000f 	and.w	r0, r0, #15
  402a0a:	fa00 f00b 	lsl.w	r0, r0, fp
  402a0e:	ea4a 0a00 	orr.w	sl, sl, r0
  402a12:	f10b 0b04 	add.w	fp, fp, #4
  402a16:	9b05      	ldr	r3, [sp, #20]
  402a18:	e00d      	b.n	402a36 <__gethex+0x24a>
  402a1a:	9b05      	ldr	r3, [sp, #20]
  402a1c:	9a08      	ldr	r2, [sp, #32]
  402a1e:	4413      	add	r3, r2
  402a20:	429f      	cmp	r7, r3
  402a22:	d8e1      	bhi.n	4029e8 <__gethex+0x1fc>
  402a24:	4618      	mov	r0, r3
  402a26:	9a01      	ldr	r2, [sp, #4]
  402a28:	9903      	ldr	r1, [sp, #12]
  402a2a:	9309      	str	r3, [sp, #36]	; 0x24
  402a2c:	f000 fe38 	bl	4036a0 <strncmp>
  402a30:	9b09      	ldr	r3, [sp, #36]	; 0x24
  402a32:	2800      	cmp	r0, #0
  402a34:	d1d8      	bne.n	4029e8 <__gethex+0x1fc>
  402a36:	461e      	mov	r6, r3
  402a38:	e791      	b.n	40295e <__gethex+0x172>
  402a3a:	1eb9      	subs	r1, r7, #2
  402a3c:	4628      	mov	r0, r5
  402a3e:	f000 fd86 	bl	40354e <__any_on>
  402a42:	2800      	cmp	r0, #0
  402a44:	d0b2      	beq.n	4029ac <__gethex+0x1c0>
  402a46:	f04f 0a03 	mov.w	sl, #3
  402a4a:	e7b1      	b.n	4029b0 <__gethex+0x1c4>
  402a4c:	da09      	bge.n	402a62 <__gethex+0x276>
  402a4e:	1bf7      	subs	r7, r6, r7
  402a50:	4629      	mov	r1, r5
  402a52:	463a      	mov	r2, r7
  402a54:	9802      	ldr	r0, [sp, #8]
  402a56:	f000 fba9 	bl	4031ac <__lshift>
  402a5a:	1be4      	subs	r4, r4, r7
  402a5c:	4605      	mov	r5, r0
  402a5e:	f100 0914 	add.w	r9, r0, #20
  402a62:	f04f 0a00 	mov.w	sl, #0
  402a66:	e7a8      	b.n	4029ba <__gethex+0x1ce>
  402a68:	f8d8 0004 	ldr.w	r0, [r8, #4]
  402a6c:	4284      	cmp	r4, r0
  402a6e:	da6a      	bge.n	402b46 <__gethex+0x35a>
  402a70:	1b04      	subs	r4, r0, r4
  402a72:	42a6      	cmp	r6, r4
  402a74:	dc2e      	bgt.n	402ad4 <__gethex+0x2e8>
  402a76:	f8d8 300c 	ldr.w	r3, [r8, #12]
  402a7a:	2b02      	cmp	r3, #2
  402a7c:	d022      	beq.n	402ac4 <__gethex+0x2d8>
  402a7e:	2b03      	cmp	r3, #3
  402a80:	d024      	beq.n	402acc <__gethex+0x2e0>
  402a82:	2b01      	cmp	r3, #1
  402a84:	d115      	bne.n	402ab2 <__gethex+0x2c6>
  402a86:	42a6      	cmp	r6, r4
  402a88:	d113      	bne.n	402ab2 <__gethex+0x2c6>
  402a8a:	2e01      	cmp	r6, #1
  402a8c:	dc0b      	bgt.n	402aa6 <__gethex+0x2ba>
  402a8e:	9a06      	ldr	r2, [sp, #24]
  402a90:	f8d8 3004 	ldr.w	r3, [r8, #4]
  402a94:	6013      	str	r3, [r2, #0]
  402a96:	2301      	movs	r3, #1
  402a98:	612b      	str	r3, [r5, #16]
  402a9a:	f8c9 3000 	str.w	r3, [r9]
  402a9e:	9b14      	ldr	r3, [sp, #80]	; 0x50
  402aa0:	2762      	movs	r7, #98	; 0x62
  402aa2:	601d      	str	r5, [r3, #0]
  402aa4:	e72a      	b.n	4028fc <__gethex+0x110>
  402aa6:	1e71      	subs	r1, r6, #1
  402aa8:	4628      	mov	r0, r5
  402aaa:	f000 fd50 	bl	40354e <__any_on>
  402aae:	2800      	cmp	r0, #0
  402ab0:	d1ed      	bne.n	402a8e <__gethex+0x2a2>
  402ab2:	4629      	mov	r1, r5
  402ab4:	9802      	ldr	r0, [sp, #8]
  402ab6:	f000 f9b7 	bl	402e28 <_Bfree>
  402aba:	9a14      	ldr	r2, [sp, #80]	; 0x50
  402abc:	2300      	movs	r3, #0
  402abe:	6013      	str	r3, [r2, #0]
  402ac0:	2750      	movs	r7, #80	; 0x50
  402ac2:	e71b      	b.n	4028fc <__gethex+0x110>
  402ac4:	9b15      	ldr	r3, [sp, #84]	; 0x54
  402ac6:	2b00      	cmp	r3, #0
  402ac8:	d0e1      	beq.n	402a8e <__gethex+0x2a2>
  402aca:	e7f2      	b.n	402ab2 <__gethex+0x2c6>
  402acc:	9b15      	ldr	r3, [sp, #84]	; 0x54
  402ace:	2b00      	cmp	r3, #0
  402ad0:	d1dd      	bne.n	402a8e <__gethex+0x2a2>
  402ad2:	e7ee      	b.n	402ab2 <__gethex+0x2c6>
  402ad4:	1e67      	subs	r7, r4, #1
  402ad6:	f1ba 0f00 	cmp.w	sl, #0
  402ada:	d131      	bne.n	402b40 <__gethex+0x354>
  402adc:	b127      	cbz	r7, 402ae8 <__gethex+0x2fc>
  402ade:	4639      	mov	r1, r7
  402ae0:	4628      	mov	r0, r5
  402ae2:	f000 fd34 	bl	40354e <__any_on>
  402ae6:	4682      	mov	sl, r0
  402ae8:	117a      	asrs	r2, r7, #5
  402aea:	2301      	movs	r3, #1
  402aec:	f007 071f 	and.w	r7, r7, #31
  402af0:	fa03 f707 	lsl.w	r7, r3, r7
  402af4:	f859 3022 	ldr.w	r3, [r9, r2, lsl #2]
  402af8:	4621      	mov	r1, r4
  402afa:	421f      	tst	r7, r3
  402afc:	4628      	mov	r0, r5
  402afe:	bf18      	it	ne
  402b00:	f04a 0a02 	orrne.w	sl, sl, #2
  402b04:	1b36      	subs	r6, r6, r4
  402b06:	f7ff fe27 	bl	402758 <rshift>
  402b0a:	f8d8 4004 	ldr.w	r4, [r8, #4]
  402b0e:	2702      	movs	r7, #2
  402b10:	f1ba 0f00 	cmp.w	sl, #0
  402b14:	d045      	beq.n	402ba2 <__gethex+0x3b6>
  402b16:	f8d8 300c 	ldr.w	r3, [r8, #12]
  402b1a:	2b02      	cmp	r3, #2
  402b1c:	d015      	beq.n	402b4a <__gethex+0x35e>
  402b1e:	2b03      	cmp	r3, #3
  402b20:	d017      	beq.n	402b52 <__gethex+0x366>
  402b22:	2b01      	cmp	r3, #1
  402b24:	d109      	bne.n	402b3a <__gethex+0x34e>
  402b26:	f01a 0f02 	tst.w	sl, #2
  402b2a:	d006      	beq.n	402b3a <__gethex+0x34e>
  402b2c:	f8d9 3000 	ldr.w	r3, [r9]
  402b30:	ea4a 0a03 	orr.w	sl, sl, r3
  402b34:	f01a 0f01 	tst.w	sl, #1
  402b38:	d10e      	bne.n	402b58 <__gethex+0x36c>
  402b3a:	f047 0710 	orr.w	r7, r7, #16
  402b3e:	e030      	b.n	402ba2 <__gethex+0x3b6>
  402b40:	f04f 0a01 	mov.w	sl, #1
  402b44:	e7d0      	b.n	402ae8 <__gethex+0x2fc>
  402b46:	2701      	movs	r7, #1
  402b48:	e7e2      	b.n	402b10 <__gethex+0x324>
  402b4a:	9b15      	ldr	r3, [sp, #84]	; 0x54
  402b4c:	f1c3 0301 	rsb	r3, r3, #1
  402b50:	9315      	str	r3, [sp, #84]	; 0x54
  402b52:	9b15      	ldr	r3, [sp, #84]	; 0x54
  402b54:	2b00      	cmp	r3, #0
  402b56:	d0f0      	beq.n	402b3a <__gethex+0x34e>
  402b58:	f8d5 9010 	ldr.w	r9, [r5, #16]
  402b5c:	f105 0314 	add.w	r3, r5, #20
  402b60:	ea4f 0a89 	mov.w	sl, r9, lsl #2
  402b64:	eb03 010a 	add.w	r1, r3, sl
  402b68:	2000      	movs	r0, #0
  402b6a:	681a      	ldr	r2, [r3, #0]
  402b6c:	f1b2 3fff 	cmp.w	r2, #4294967295
  402b70:	d01c      	beq.n	402bac <__gethex+0x3c0>
  402b72:	3201      	adds	r2, #1
  402b74:	601a      	str	r2, [r3, #0]
  402b76:	2f02      	cmp	r7, #2
  402b78:	f105 0314 	add.w	r3, r5, #20
  402b7c:	d138      	bne.n	402bf0 <__gethex+0x404>
  402b7e:	f8d8 2000 	ldr.w	r2, [r8]
  402b82:	3a01      	subs	r2, #1
  402b84:	4296      	cmp	r6, r2
  402b86:	d10a      	bne.n	402b9e <__gethex+0x3b2>
  402b88:	1171      	asrs	r1, r6, #5
  402b8a:	2201      	movs	r2, #1
  402b8c:	f006 061f 	and.w	r6, r6, #31
  402b90:	f853 3021 	ldr.w	r3, [r3, r1, lsl #2]
  402b94:	fa02 f606 	lsl.w	r6, r2, r6
  402b98:	421e      	tst	r6, r3
  402b9a:	bf18      	it	ne
  402b9c:	4617      	movne	r7, r2
  402b9e:	f047 0720 	orr.w	r7, r7, #32
  402ba2:	9b14      	ldr	r3, [sp, #80]	; 0x50
  402ba4:	601d      	str	r5, [r3, #0]
  402ba6:	9b06      	ldr	r3, [sp, #24]
  402ba8:	601c      	str	r4, [r3, #0]
  402baa:	e6a7      	b.n	4028fc <__gethex+0x110>
  402bac:	f843 0b04 	str.w	r0, [r3], #4
  402bb0:	4299      	cmp	r1, r3
  402bb2:	d8da      	bhi.n	402b6a <__gethex+0x37e>
  402bb4:	68ab      	ldr	r3, [r5, #8]
  402bb6:	4599      	cmp	r9, r3
  402bb8:	db12      	blt.n	402be0 <__gethex+0x3f4>
  402bba:	6869      	ldr	r1, [r5, #4]
  402bbc:	9802      	ldr	r0, [sp, #8]
  402bbe:	3101      	adds	r1, #1
  402bc0:	f000 f8fe 	bl	402dc0 <_Balloc>
  402bc4:	692a      	ldr	r2, [r5, #16]
  402bc6:	3202      	adds	r2, #2
  402bc8:	f105 010c 	add.w	r1, r5, #12
  402bcc:	4683      	mov	fp, r0
  402bce:	0092      	lsls	r2, r2, #2
  402bd0:	300c      	adds	r0, #12
  402bd2:	f7fe feb3 	bl	40193c <memcpy>
  402bd6:	4629      	mov	r1, r5
  402bd8:	9802      	ldr	r0, [sp, #8]
  402bda:	f000 f925 	bl	402e28 <_Bfree>
  402bde:	465d      	mov	r5, fp
  402be0:	692b      	ldr	r3, [r5, #16]
  402be2:	1c5a      	adds	r2, r3, #1
  402be4:	eb05 0383 	add.w	r3, r5, r3, lsl #2
  402be8:	612a      	str	r2, [r5, #16]
  402bea:	2201      	movs	r2, #1
  402bec:	615a      	str	r2, [r3, #20]
  402bee:	e7c2      	b.n	402b76 <__gethex+0x38a>
  402bf0:	692a      	ldr	r2, [r5, #16]
  402bf2:	4591      	cmp	r9, r2
  402bf4:	da0b      	bge.n	402c0e <__gethex+0x422>
  402bf6:	2101      	movs	r1, #1
  402bf8:	4628      	mov	r0, r5
  402bfa:	f7ff fdad 	bl	402758 <rshift>
  402bfe:	f8d8 3008 	ldr.w	r3, [r8, #8]
  402c02:	3401      	adds	r4, #1
  402c04:	429c      	cmp	r4, r3
  402c06:	f73f aedc 	bgt.w	4029c2 <__gethex+0x1d6>
  402c0a:	2701      	movs	r7, #1
  402c0c:	e7c7      	b.n	402b9e <__gethex+0x3b2>
  402c0e:	f016 061f 	ands.w	r6, r6, #31
  402c12:	d0fa      	beq.n	402c0a <__gethex+0x41e>
  402c14:	449a      	add	sl, r3
  402c16:	f1c6 0620 	rsb	r6, r6, #32
  402c1a:	f85a 0c04 	ldr.w	r0, [sl, #-4]
  402c1e:	f000 f993 	bl	402f48 <__hi0bits>
  402c22:	42b0      	cmp	r0, r6
  402c24:	dbe7      	blt.n	402bf6 <__gethex+0x40a>
  402c26:	e7f0      	b.n	402c0a <__gethex+0x41e>

00402c28 <L_shift>:
  402c28:	f1c2 0208 	rsb	r2, r2, #8
  402c2c:	0092      	lsls	r2, r2, #2
  402c2e:	b570      	push	{r4, r5, r6, lr}
  402c30:	f1c2 0620 	rsb	r6, r2, #32
  402c34:	6843      	ldr	r3, [r0, #4]
  402c36:	6804      	ldr	r4, [r0, #0]
  402c38:	fa03 f506 	lsl.w	r5, r3, r6
  402c3c:	432c      	orrs	r4, r5
  402c3e:	40d3      	lsrs	r3, r2
  402c40:	6004      	str	r4, [r0, #0]
  402c42:	f840 3f04 	str.w	r3, [r0, #4]!
  402c46:	4288      	cmp	r0, r1
  402c48:	d3f4      	bcc.n	402c34 <L_shift+0xc>
  402c4a:	bd70      	pop	{r4, r5, r6, pc}

00402c4c <__match>:
  402c4c:	b530      	push	{r4, r5, lr}
  402c4e:	6803      	ldr	r3, [r0, #0]
  402c50:	f811 4b01 	ldrb.w	r4, [r1], #1
  402c54:	3301      	adds	r3, #1
  402c56:	b914      	cbnz	r4, 402c5e <__match+0x12>
  402c58:	6003      	str	r3, [r0, #0]
  402c5a:	2001      	movs	r0, #1
  402c5c:	bd30      	pop	{r4, r5, pc}
  402c5e:	781a      	ldrb	r2, [r3, #0]
  402c60:	f1a2 0541 	sub.w	r5, r2, #65	; 0x41
  402c64:	2d19      	cmp	r5, #25
  402c66:	bf98      	it	ls
  402c68:	3220      	addls	r2, #32
  402c6a:	42a2      	cmp	r2, r4
  402c6c:	d0f0      	beq.n	402c50 <__match+0x4>
  402c6e:	2000      	movs	r0, #0
  402c70:	bd30      	pop	{r4, r5, pc}

00402c72 <__hexnan>:
  402c72:	e92d 4ff0 	stmdb	sp!, {r4, r5, r6, r7, r8, r9, sl, fp, lr}
  402c76:	680b      	ldr	r3, [r1, #0]
  402c78:	6801      	ldr	r1, [r0, #0]
  402c7a:	115f      	asrs	r7, r3, #5
  402c7c:	eb02 0787 	add.w	r7, r2, r7, lsl #2
  402c80:	f013 031f 	ands.w	r3, r3, #31
  402c84:	b087      	sub	sp, #28
  402c86:	bf18      	it	ne
  402c88:	3704      	addne	r7, #4
  402c8a:	2500      	movs	r5, #0
  402c8c:	1f3e      	subs	r6, r7, #4
  402c8e:	4682      	mov	sl, r0
  402c90:	4690      	mov	r8, r2
  402c92:	9302      	str	r3, [sp, #8]
  402c94:	f847 5c04 	str.w	r5, [r7, #-4]
  402c98:	46b1      	mov	r9, r6
  402c9a:	4634      	mov	r4, r6
  402c9c:	9501      	str	r5, [sp, #4]
  402c9e:	46ab      	mov	fp, r5
  402ca0:	784a      	ldrb	r2, [r1, #1]
  402ca2:	1c4b      	adds	r3, r1, #1
  402ca4:	9303      	str	r3, [sp, #12]
  402ca6:	b342      	cbz	r2, 402cfa <__hexnan+0x88>
  402ca8:	4610      	mov	r0, r2
  402caa:	9105      	str	r1, [sp, #20]
  402cac:	9204      	str	r2, [sp, #16]
  402cae:	f7ff fd88 	bl	4027c2 <__hexdig_fun>
  402cb2:	2800      	cmp	r0, #0
  402cb4:	d143      	bne.n	402d3e <__hexnan+0xcc>
  402cb6:	9a04      	ldr	r2, [sp, #16]
  402cb8:	9905      	ldr	r1, [sp, #20]
  402cba:	2a20      	cmp	r2, #32
  402cbc:	d818      	bhi.n	402cf0 <__hexnan+0x7e>
  402cbe:	9b01      	ldr	r3, [sp, #4]
  402cc0:	459b      	cmp	fp, r3
  402cc2:	dd13      	ble.n	402cec <__hexnan+0x7a>
  402cc4:	454c      	cmp	r4, r9
  402cc6:	d206      	bcs.n	402cd6 <__hexnan+0x64>
  402cc8:	2d07      	cmp	r5, #7
  402cca:	dc04      	bgt.n	402cd6 <__hexnan+0x64>
  402ccc:	462a      	mov	r2, r5
  402cce:	4649      	mov	r1, r9
  402cd0:	4620      	mov	r0, r4
  402cd2:	f7ff ffa9 	bl	402c28 <L_shift>
  402cd6:	4544      	cmp	r4, r8
  402cd8:	d944      	bls.n	402d64 <__hexnan+0xf2>
  402cda:	2300      	movs	r3, #0
  402cdc:	f1a4 0904 	sub.w	r9, r4, #4
  402ce0:	f844 3c04 	str.w	r3, [r4, #-4]
  402ce4:	f8cd b004 	str.w	fp, [sp, #4]
  402ce8:	464c      	mov	r4, r9
  402cea:	461d      	mov	r5, r3
  402cec:	9903      	ldr	r1, [sp, #12]
  402cee:	e7d7      	b.n	402ca0 <__hexnan+0x2e>
  402cf0:	2a29      	cmp	r2, #41	; 0x29
  402cf2:	d14a      	bne.n	402d8a <__hexnan+0x118>
  402cf4:	3102      	adds	r1, #2
  402cf6:	f8ca 1000 	str.w	r1, [sl]
  402cfa:	f1bb 0f00 	cmp.w	fp, #0
  402cfe:	d044      	beq.n	402d8a <__hexnan+0x118>
  402d00:	454c      	cmp	r4, r9
  402d02:	d206      	bcs.n	402d12 <__hexnan+0xa0>
  402d04:	2d07      	cmp	r5, #7
  402d06:	dc04      	bgt.n	402d12 <__hexnan+0xa0>
  402d08:	462a      	mov	r2, r5
  402d0a:	4649      	mov	r1, r9
  402d0c:	4620      	mov	r0, r4
  402d0e:	f7ff ff8b 	bl	402c28 <L_shift>
  402d12:	4544      	cmp	r4, r8
  402d14:	d928      	bls.n	402d68 <__hexnan+0xf6>
  402d16:	4643      	mov	r3, r8
  402d18:	f854 2b04 	ldr.w	r2, [r4], #4
  402d1c:	f843 2b04 	str.w	r2, [r3], #4
  402d20:	42a6      	cmp	r6, r4
  402d22:	d2f9      	bcs.n	402d18 <__hexnan+0xa6>
  402d24:	2200      	movs	r2, #0
  402d26:	f843 2b04 	str.w	r2, [r3], #4
  402d2a:	429e      	cmp	r6, r3
  402d2c:	d2fb      	bcs.n	402d26 <__hexnan+0xb4>
  402d2e:	6833      	ldr	r3, [r6, #0]
  402d30:	b91b      	cbnz	r3, 402d3a <__hexnan+0xc8>
  402d32:	4546      	cmp	r6, r8
  402d34:	d127      	bne.n	402d86 <__hexnan+0x114>
  402d36:	2301      	movs	r3, #1
  402d38:	6033      	str	r3, [r6, #0]
  402d3a:	2005      	movs	r0, #5
  402d3c:	e026      	b.n	402d8c <__hexnan+0x11a>
  402d3e:	3501      	adds	r5, #1
  402d40:	2d08      	cmp	r5, #8
  402d42:	f10b 0b01 	add.w	fp, fp, #1
  402d46:	dd06      	ble.n	402d56 <__hexnan+0xe4>
  402d48:	4544      	cmp	r4, r8
  402d4a:	d9cf      	bls.n	402cec <__hexnan+0x7a>
  402d4c:	2300      	movs	r3, #0
  402d4e:	f844 3c04 	str.w	r3, [r4, #-4]
  402d52:	2501      	movs	r5, #1
  402d54:	3c04      	subs	r4, #4
  402d56:	6822      	ldr	r2, [r4, #0]
  402d58:	f000 000f 	and.w	r0, r0, #15
  402d5c:	ea40 1002 	orr.w	r0, r0, r2, lsl #4
  402d60:	6020      	str	r0, [r4, #0]
  402d62:	e7c3      	b.n	402cec <__hexnan+0x7a>
  402d64:	2508      	movs	r5, #8
  402d66:	e7c1      	b.n	402cec <__hexnan+0x7a>
  402d68:	9b02      	ldr	r3, [sp, #8]
  402d6a:	2b00      	cmp	r3, #0
  402d6c:	d0df      	beq.n	402d2e <__hexnan+0xbc>
  402d6e:	f04f 32ff 	mov.w	r2, #4294967295
  402d72:	f1c3 0320 	rsb	r3, r3, #32
  402d76:	fa22 f303 	lsr.w	r3, r2, r3
  402d7a:	f857 2c04 	ldr.w	r2, [r7, #-4]
  402d7e:	401a      	ands	r2, r3
  402d80:	f847 2c04 	str.w	r2, [r7, #-4]
  402d84:	e7d3      	b.n	402d2e <__hexnan+0xbc>
  402d86:	3e04      	subs	r6, #4
  402d88:	e7d1      	b.n	402d2e <__hexnan+0xbc>
  402d8a:	2004      	movs	r0, #4
  402d8c:	b007      	add	sp, #28
  402d8e:	e8bd 8ff0 	ldmia.w	sp!, {r4, r5, r6, r7, r8, r9, sl, fp, pc}

00402d92 <__locale_ctype_ptr_l>:
  402d92:	f8d0 00ec 	ldr.w	r0, [r0, #236]	; 0xec
  402d96:	4770      	bx	lr

00402d98 <__localeconv_l>:
  402d98:	30f0      	adds	r0, #240	; 0xf0
  402d9a:	4770      	bx	lr

00402d9c <__ascii_mbtowc>:
  402d9c:	b082      	sub	sp, #8
  402d9e:	b901      	cbnz	r1, 402da2 <__ascii_mbtowc+0x6>
  402da0:	a901      	add	r1, sp, #4
  402da2:	b142      	cbz	r2, 402db6 <__ascii_mbtowc+0x1a>
  402da4:	b14b      	cbz	r3, 402dba <__ascii_mbtowc+0x1e>
  402da6:	7813      	ldrb	r3, [r2, #0]
  402da8:	600b      	str	r3, [r1, #0]
  402daa:	7812      	ldrb	r2, [r2, #0]
  402dac:	1c10      	adds	r0, r2, #0
  402dae:	bf18      	it	ne
  402db0:	2001      	movne	r0, #1
  402db2:	b002      	add	sp, #8
  402db4:	4770      	bx	lr
  402db6:	4610      	mov	r0, r2
  402db8:	e7fb      	b.n	402db2 <__ascii_mbtowc+0x16>
  402dba:	f06f 0001 	mvn.w	r0, #1
  402dbe:	e7f8      	b.n	402db2 <__ascii_mbtowc+0x16>

00402dc0 <_Balloc>:
  402dc0:	b570      	push	{r4, r5, r6, lr}
  402dc2:	6a45      	ldr	r5, [r0, #36]	; 0x24
  402dc4:	4604      	mov	r4, r0
  402dc6:	460e      	mov	r6, r1
  402dc8:	b93d      	cbnz	r5, 402dda <_Balloc+0x1a>
  402dca:	2010      	movs	r0, #16
  402dcc:	f000 fc88 	bl	4036e0 <malloc>
  402dd0:	6260      	str	r0, [r4, #36]	; 0x24
  402dd2:	6045      	str	r5, [r0, #4]
  402dd4:	6085      	str	r5, [r0, #8]
  402dd6:	6005      	str	r5, [r0, #0]
  402dd8:	60c5      	str	r5, [r0, #12]
  402dda:	6a65      	ldr	r5, [r4, #36]	; 0x24
  402ddc:	68eb      	ldr	r3, [r5, #12]
  402dde:	b183      	cbz	r3, 402e02 <_Balloc+0x42>
  402de0:	6a63      	ldr	r3, [r4, #36]	; 0x24
  402de2:	68db      	ldr	r3, [r3, #12]
  402de4:	f853 0026 	ldr.w	r0, [r3, r6, lsl #2]
  402de8:	b9b8      	cbnz	r0, 402e1a <_Balloc+0x5a>
  402dea:	2101      	movs	r1, #1
  402dec:	fa01 f506 	lsl.w	r5, r1, r6
  402df0:	1d6a      	adds	r2, r5, #5
  402df2:	0092      	lsls	r2, r2, #2
  402df4:	4620      	mov	r0, r4
  402df6:	f000 fbcb 	bl	403590 <_calloc_r>
  402dfa:	b160      	cbz	r0, 402e16 <_Balloc+0x56>
  402dfc:	6046      	str	r6, [r0, #4]
  402dfe:	6085      	str	r5, [r0, #8]
  402e00:	e00e      	b.n	402e20 <_Balloc+0x60>
  402e02:	2221      	movs	r2, #33	; 0x21
  402e04:	2104      	movs	r1, #4
  402e06:	4620      	mov	r0, r4
  402e08:	f000 fbc2 	bl	403590 <_calloc_r>
  402e0c:	6a63      	ldr	r3, [r4, #36]	; 0x24
  402e0e:	60e8      	str	r0, [r5, #12]
  402e10:	68db      	ldr	r3, [r3, #12]
  402e12:	2b00      	cmp	r3, #0
  402e14:	d1e4      	bne.n	402de0 <_Balloc+0x20>
  402e16:	2000      	movs	r0, #0
  402e18:	bd70      	pop	{r4, r5, r6, pc}
  402e1a:	6802      	ldr	r2, [r0, #0]
  402e1c:	f843 2026 	str.w	r2, [r3, r6, lsl #2]
  402e20:	2300      	movs	r3, #0
  402e22:	6103      	str	r3, [r0, #16]
  402e24:	60c3      	str	r3, [r0, #12]
  402e26:	bd70      	pop	{r4, r5, r6, pc}

00402e28 <_Bfree>:
  402e28:	b570      	push	{r4, r5, r6, lr}
  402e2a:	6a44      	ldr	r4, [r0, #36]	; 0x24
  402e2c:	4606      	mov	r6, r0
  402e2e:	460d      	mov	r5, r1
  402e30:	b93c      	cbnz	r4, 402e42 <_Bfree+0x1a>
  402e32:	2010      	movs	r0, #16
  402e34:	f000 fc54 	bl	4036e0 <malloc>
  402e38:	6270      	str	r0, [r6, #36]	; 0x24
  402e3a:	6044      	str	r4, [r0, #4]
  402e3c:	6084      	str	r4, [r0, #8]
  402e3e:	6004      	str	r4, [r0, #0]
  402e40:	60c4      	str	r4, [r0, #12]
  402e42:	b13d      	cbz	r5, 402e54 <_Bfree+0x2c>
  402e44:	6a73      	ldr	r3, [r6, #36]	; 0x24
  402e46:	686a      	ldr	r2, [r5, #4]
  402e48:	68db      	ldr	r3, [r3, #12]
  402e4a:	f853 1022 	ldr.w	r1, [r3, r2, lsl #2]
  402e4e:	6029      	str	r1, [r5, #0]
  402e50:	f843 5022 	str.w	r5, [r3, r2, lsl #2]
  402e54:	bd70      	pop	{r4, r5, r6, pc}

00402e56 <__multadd>:
  402e56:	e92d 41f0 	stmdb	sp!, {r4, r5, r6, r7, r8, lr}
  402e5a:	690d      	ldr	r5, [r1, #16]
  402e5c:	461f      	mov	r7, r3
  402e5e:	4606      	mov	r6, r0
  402e60:	460c      	mov	r4, r1
  402e62:	f101 0e14 	add.w	lr, r1, #20
  402e66:	2300      	movs	r3, #0
  402e68:	f8de 0000 	ldr.w	r0, [lr]
  402e6c:	b281      	uxth	r1, r0
  402e6e:	fb02 7101 	mla	r1, r2, r1, r7
  402e72:	0c0f      	lsrs	r7, r1, #16
  402e74:	0c00      	lsrs	r0, r0, #16
  402e76:	fb02 7000 	mla	r0, r2, r0, r7
  402e7a:	b289      	uxth	r1, r1
  402e7c:	3301      	adds	r3, #1
  402e7e:	eb01 4100 	add.w	r1, r1, r0, lsl #16
  402e82:	429d      	cmp	r5, r3
  402e84:	ea4f 4710 	mov.w	r7, r0, lsr #16
  402e88:	f84e 1b04 	str.w	r1, [lr], #4
  402e8c:	dcec      	bgt.n	402e68 <__multadd+0x12>
  402e8e:	b1d7      	cbz	r7, 402ec6 <__multadd+0x70>
  402e90:	68a3      	ldr	r3, [r4, #8]
  402e92:	429d      	cmp	r5, r3
  402e94:	db12      	blt.n	402ebc <__multadd+0x66>
  402e96:	6861      	ldr	r1, [r4, #4]
  402e98:	4630      	mov	r0, r6
  402e9a:	3101      	adds	r1, #1
  402e9c:	f7ff ff90 	bl	402dc0 <_Balloc>
  402ea0:	6922      	ldr	r2, [r4, #16]
  402ea2:	3202      	adds	r2, #2
  402ea4:	f104 010c 	add.w	r1, r4, #12
  402ea8:	4680      	mov	r8, r0
  402eaa:	0092      	lsls	r2, r2, #2
  402eac:	300c      	adds	r0, #12
  402eae:	f7fe fd45 	bl	40193c <memcpy>
  402eb2:	4621      	mov	r1, r4
  402eb4:	4630      	mov	r0, r6
  402eb6:	f7ff ffb7 	bl	402e28 <_Bfree>
  402eba:	4644      	mov	r4, r8
  402ebc:	eb04 0385 	add.w	r3, r4, r5, lsl #2
  402ec0:	3501      	adds	r5, #1
  402ec2:	615f      	str	r7, [r3, #20]
  402ec4:	6125      	str	r5, [r4, #16]
  402ec6:	4620      	mov	r0, r4
  402ec8:	e8bd 81f0 	ldmia.w	sp!, {r4, r5, r6, r7, r8, pc}

00402ecc <__s2b>:
  402ecc:	e92d 43f8 	stmdb	sp!, {r3, r4, r5, r6, r7, r8, r9, lr}
  402ed0:	460c      	mov	r4, r1
  402ed2:	4615      	mov	r5, r2
  402ed4:	461f      	mov	r7, r3
  402ed6:	2209      	movs	r2, #9
  402ed8:	3308      	adds	r3, #8
  402eda:	4606      	mov	r6, r0
  402edc:	fb93 f3f2 	sdiv	r3, r3, r2
  402ee0:	2100      	movs	r1, #0
  402ee2:	2201      	movs	r2, #1
  402ee4:	429a      	cmp	r2, r3
  402ee6:	db20      	blt.n	402f2a <__s2b+0x5e>
  402ee8:	4630      	mov	r0, r6
  402eea:	f7ff ff69 	bl	402dc0 <_Balloc>
  402eee:	9b08      	ldr	r3, [sp, #32]
  402ef0:	6143      	str	r3, [r0, #20]
  402ef2:	2d09      	cmp	r5, #9
  402ef4:	f04f 0301 	mov.w	r3, #1
  402ef8:	6103      	str	r3, [r0, #16]
  402efa:	dd19      	ble.n	402f30 <__s2b+0x64>
  402efc:	f104 0909 	add.w	r9, r4, #9
  402f00:	46c8      	mov	r8, r9
  402f02:	442c      	add	r4, r5
  402f04:	f818 3b01 	ldrb.w	r3, [r8], #1
  402f08:	4601      	mov	r1, r0
  402f0a:	3b30      	subs	r3, #48	; 0x30
  402f0c:	220a      	movs	r2, #10
  402f0e:	4630      	mov	r0, r6
  402f10:	f7ff ffa1 	bl	402e56 <__multadd>
  402f14:	45a0      	cmp	r8, r4
  402f16:	d1f5      	bne.n	402f04 <__s2b+0x38>
  402f18:	f1a5 0408 	sub.w	r4, r5, #8
  402f1c:	444c      	add	r4, r9
  402f1e:	1b2d      	subs	r5, r5, r4
  402f20:	1963      	adds	r3, r4, r5
  402f22:	42bb      	cmp	r3, r7
  402f24:	db07      	blt.n	402f36 <__s2b+0x6a>
  402f26:	e8bd 83f8 	ldmia.w	sp!, {r3, r4, r5, r6, r7, r8, r9, pc}
  402f2a:	0052      	lsls	r2, r2, #1
  402f2c:	3101      	adds	r1, #1
  402f2e:	e7d9      	b.n	402ee4 <__s2b+0x18>
  402f30:	340a      	adds	r4, #10
  402f32:	2509      	movs	r5, #9
  402f34:	e7f3      	b.n	402f1e <__s2b+0x52>
  402f36:	f814 3b01 	ldrb.w	r3, [r4], #1
  402f3a:	4601      	mov	r1, r0
  402f3c:	3b30      	subs	r3, #48	; 0x30
  402f3e:	220a      	movs	r2, #10
  402f40:	4630      	mov	r0, r6
  402f42:	f7ff ff88 	bl	402e56 <__multadd>
  402f46:	e7eb      	b.n	402f20 <__s2b+0x54>

00402f48 <__hi0bits>:
  402f48:	0c02      	lsrs	r2, r0, #16
  402f4a:	0412      	lsls	r2, r2, #16
  402f4c:	4603      	mov	r3, r0
  402f4e:	b9b2      	cbnz	r2, 402f7e <__hi0bits+0x36>
  402f50:	0403      	lsls	r3, r0, #16
  402f52:	2010      	movs	r0, #16
  402f54:	f013 4f7f 	tst.w	r3, #4278190080	; 0xff000000
  402f58:	bf04      	itt	eq
  402f5a:	021b      	lsleq	r3, r3, #8
  402f5c:	3008      	addeq	r0, #8
  402f5e:	f013 4f70 	tst.w	r3, #4026531840	; 0xf0000000
  402f62:	bf04      	itt	eq
  402f64:	011b      	lsleq	r3, r3, #4
  402f66:	3004      	addeq	r0, #4
  402f68:	f013 4f40 	tst.w	r3, #3221225472	; 0xc0000000
  402f6c:	bf04      	itt	eq
  402f6e:	009b      	lsleq	r3, r3, #2
  402f70:	3002      	addeq	r0, #2
  402f72:	2b00      	cmp	r3, #0
  402f74:	db06      	blt.n	402f84 <__hi0bits+0x3c>
  402f76:	005b      	lsls	r3, r3, #1
  402f78:	d503      	bpl.n	402f82 <__hi0bits+0x3a>
  402f7a:	3001      	adds	r0, #1
  402f7c:	4770      	bx	lr
  402f7e:	2000      	movs	r0, #0
  402f80:	e7e8      	b.n	402f54 <__hi0bits+0xc>
  402f82:	2020      	movs	r0, #32
  402f84:	4770      	bx	lr

00402f86 <__lo0bits>:
  402f86:	6803      	ldr	r3, [r0, #0]
  402f88:	f013 0207 	ands.w	r2, r3, #7
  402f8c:	4601      	mov	r1, r0
  402f8e:	d00b      	beq.n	402fa8 <__lo0bits+0x22>
  402f90:	07da      	lsls	r2, r3, #31
  402f92:	d423      	bmi.n	402fdc <__lo0bits+0x56>
  402f94:	0798      	lsls	r0, r3, #30
  402f96:	bf49      	itett	mi
  402f98:	085b      	lsrmi	r3, r3, #1
  402f9a:	089b      	lsrpl	r3, r3, #2
  402f9c:	2001      	movmi	r0, #1
  402f9e:	600b      	strmi	r3, [r1, #0]
  402fa0:	bf5c      	itt	pl
  402fa2:	600b      	strpl	r3, [r1, #0]
  402fa4:	2002      	movpl	r0, #2
  402fa6:	4770      	bx	lr
  402fa8:	b298      	uxth	r0, r3
  402faa:	b9a8      	cbnz	r0, 402fd8 <__lo0bits+0x52>
  402fac:	0c1b      	lsrs	r3, r3, #16
  402fae:	2010      	movs	r0, #16
  402fb0:	f013 0fff 	tst.w	r3, #255	; 0xff
  402fb4:	bf04      	itt	eq
  402fb6:	0a1b      	lsreq	r3, r3, #8
  402fb8:	3008      	addeq	r0, #8
  402fba:	071a      	lsls	r2, r3, #28
  402fbc:	bf04      	itt	eq
  402fbe:	091b      	lsreq	r3, r3, #4
  402fc0:	3004      	addeq	r0, #4
  402fc2:	079a      	lsls	r2, r3, #30
  402fc4:	bf04      	itt	eq
  402fc6:	089b      	lsreq	r3, r3, #2
  402fc8:	3002      	addeq	r0, #2
  402fca:	07da      	lsls	r2, r3, #31
  402fcc:	d402      	bmi.n	402fd4 <__lo0bits+0x4e>
  402fce:	085b      	lsrs	r3, r3, #1
  402fd0:	d006      	beq.n	402fe0 <__lo0bits+0x5a>
  402fd2:	3001      	adds	r0, #1
  402fd4:	600b      	str	r3, [r1, #0]
  402fd6:	4770      	bx	lr
  402fd8:	4610      	mov	r0, r2
  402fda:	e7e9      	b.n	402fb0 <__lo0bits+0x2a>
  402fdc:	2000      	movs	r0, #0
  402fde:	4770      	bx	lr
  402fe0:	2020      	movs	r0, #32
  402fe2:	4770      	bx	lr

00402fe4 <__i2b>:
  402fe4:	b510      	push	{r4, lr}
  402fe6:	460c      	mov	r4, r1
  402fe8:	2101      	movs	r1, #1
  402fea:	f7ff fee9 	bl	402dc0 <_Balloc>
  402fee:	2201      	movs	r2, #1
  402ff0:	6144      	str	r4, [r0, #20]
  402ff2:	6102      	str	r2, [r0, #16]
  402ff4:	bd10      	pop	{r4, pc}

00402ff6 <__multiply>:
  402ff6:	e92d 4ff7 	stmdb	sp!, {r0, r1, r2, r4, r5, r6, r7, r8, r9, sl, fp, lr}
  402ffa:	4614      	mov	r4, r2
  402ffc:	690a      	ldr	r2, [r1, #16]
  402ffe:	6923      	ldr	r3, [r4, #16]
  403000:	429a      	cmp	r2, r3
  403002:	bfb8      	it	lt
  403004:	460b      	movlt	r3, r1
  403006:	4689      	mov	r9, r1
  403008:	bfbc      	itt	lt
  40300a:	46a1      	movlt	r9, r4
  40300c:	461c      	movlt	r4, r3
  40300e:	f8d9 7010 	ldr.w	r7, [r9, #16]
  403012:	f8d4 a010 	ldr.w	sl, [r4, #16]
  403016:	f8d9 3008 	ldr.w	r3, [r9, #8]
  40301a:	f8d9 1004 	ldr.w	r1, [r9, #4]
  40301e:	eb07 060a 	add.w	r6, r7, sl
  403022:	429e      	cmp	r6, r3
  403024:	bfc8      	it	gt
  403026:	3101      	addgt	r1, #1
  403028:	f7ff feca 	bl	402dc0 <_Balloc>
  40302c:	f100 0514 	add.w	r5, r0, #20
  403030:	eb05 0886 	add.w	r8, r5, r6, lsl #2
  403034:	462b      	mov	r3, r5
  403036:	2200      	movs	r2, #0
  403038:	4543      	cmp	r3, r8
  40303a:	d316      	bcc.n	40306a <__multiply+0x74>
  40303c:	f104 0214 	add.w	r2, r4, #20
  403040:	f109 0114 	add.w	r1, r9, #20
  403044:	eb02 038a 	add.w	r3, r2, sl, lsl #2
  403048:	eb01 0787 	add.w	r7, r1, r7, lsl #2
  40304c:	9301      	str	r3, [sp, #4]
  40304e:	9c01      	ldr	r4, [sp, #4]
  403050:	4294      	cmp	r4, r2
  403052:	4613      	mov	r3, r2
  403054:	d80c      	bhi.n	403070 <__multiply+0x7a>
  403056:	2e00      	cmp	r6, #0
  403058:	dd03      	ble.n	403062 <__multiply+0x6c>
  40305a:	f858 3d04 	ldr.w	r3, [r8, #-4]!
  40305e:	2b00      	cmp	r3, #0
  403060:	d054      	beq.n	40310c <__multiply+0x116>
  403062:	6106      	str	r6, [r0, #16]
  403064:	b003      	add	sp, #12
  403066:	e8bd 8ff0 	ldmia.w	sp!, {r4, r5, r6, r7, r8, r9, sl, fp, pc}
  40306a:	f843 2b04 	str.w	r2, [r3], #4
  40306e:	e7e3      	b.n	403038 <__multiply+0x42>
  403070:	f8b3 a000 	ldrh.w	sl, [r3]
  403074:	3204      	adds	r2, #4
  403076:	f1ba 0f00 	cmp.w	sl, #0
  40307a:	d020      	beq.n	4030be <__multiply+0xc8>
  40307c:	46ae      	mov	lr, r5
  40307e:	4689      	mov	r9, r1
  403080:	f04f 0c00 	mov.w	ip, #0
  403084:	f859 4b04 	ldr.w	r4, [r9], #4
  403088:	f8be b000 	ldrh.w	fp, [lr]
  40308c:	b2a3      	uxth	r3, r4
  40308e:	fb0a b303 	mla	r3, sl, r3, fp
  403092:	ea4f 4b14 	mov.w	fp, r4, lsr #16
  403096:	f8de 4000 	ldr.w	r4, [lr]
  40309a:	4463      	add	r3, ip
  40309c:	ea4f 4c14 	mov.w	ip, r4, lsr #16
  4030a0:	fb0a c40b 	mla	r4, sl, fp, ip
  4030a4:	eb04 4413 	add.w	r4, r4, r3, lsr #16
  4030a8:	b29b      	uxth	r3, r3
  4030aa:	ea43 4304 	orr.w	r3, r3, r4, lsl #16
  4030ae:	454f      	cmp	r7, r9
  4030b0:	ea4f 4c14 	mov.w	ip, r4, lsr #16
  4030b4:	f84e 3b04 	str.w	r3, [lr], #4
  4030b8:	d8e4      	bhi.n	403084 <__multiply+0x8e>
  4030ba:	f8ce c000 	str.w	ip, [lr]
  4030be:	f832 9c02 	ldrh.w	r9, [r2, #-2]
  4030c2:	f1b9 0f00 	cmp.w	r9, #0
  4030c6:	d01f      	beq.n	403108 <__multiply+0x112>
  4030c8:	682b      	ldr	r3, [r5, #0]
  4030ca:	46ae      	mov	lr, r5
  4030cc:	468c      	mov	ip, r1
  4030ce:	f04f 0a00 	mov.w	sl, #0
  4030d2:	f8bc 4000 	ldrh.w	r4, [ip]
  4030d6:	f8be b002 	ldrh.w	fp, [lr, #2]
  4030da:	fb09 b404 	mla	r4, r9, r4, fp
  4030de:	44a2      	add	sl, r4
  4030e0:	b29b      	uxth	r3, r3
  4030e2:	ea43 430a 	orr.w	r3, r3, sl, lsl #16
  4030e6:	f84e 3b04 	str.w	r3, [lr], #4
  4030ea:	f85c 3b04 	ldr.w	r3, [ip], #4
  4030ee:	f8be 4000 	ldrh.w	r4, [lr]
  4030f2:	0c1b      	lsrs	r3, r3, #16
  4030f4:	fb09 4303 	mla	r3, r9, r3, r4
  4030f8:	eb03 431a 	add.w	r3, r3, sl, lsr #16
  4030fc:	4567      	cmp	r7, ip
  4030fe:	ea4f 4a13 	mov.w	sl, r3, lsr #16
  403102:	d8e6      	bhi.n	4030d2 <__multiply+0xdc>
  403104:	f8ce 3000 	str.w	r3, [lr]
  403108:	3504      	adds	r5, #4
  40310a:	e7a0      	b.n	40304e <__multiply+0x58>
  40310c:	3e01      	subs	r6, #1
  40310e:	e7a2      	b.n	403056 <__multiply+0x60>

00403110 <__pow5mult>:
  403110:	e92d 43f8 	stmdb	sp!, {r3, r4, r5, r6, r7, r8, r9, lr}
  403114:	4615      	mov	r5, r2
  403116:	f012 0203 	ands.w	r2, r2, #3
  40311a:	4606      	mov	r6, r0
  40311c:	460f      	mov	r7, r1
  40311e:	d007      	beq.n	403130 <__pow5mult+0x20>
  403120:	3a01      	subs	r2, #1
  403122:	4c21      	ldr	r4, [pc, #132]	; (4031a8 <__pow5mult+0x98>)
  403124:	2300      	movs	r3, #0
  403126:	f854 2022 	ldr.w	r2, [r4, r2, lsl #2]
  40312a:	f7ff fe94 	bl	402e56 <__multadd>
  40312e:	4607      	mov	r7, r0
  403130:	10ad      	asrs	r5, r5, #2
  403132:	d035      	beq.n	4031a0 <__pow5mult+0x90>
  403134:	6a74      	ldr	r4, [r6, #36]	; 0x24
  403136:	b93c      	cbnz	r4, 403148 <__pow5mult+0x38>
  403138:	2010      	movs	r0, #16
  40313a:	f000 fad1 	bl	4036e0 <malloc>
  40313e:	6270      	str	r0, [r6, #36]	; 0x24
  403140:	6044      	str	r4, [r0, #4]
  403142:	6084      	str	r4, [r0, #8]
  403144:	6004      	str	r4, [r0, #0]
  403146:	60c4      	str	r4, [r0, #12]
  403148:	f8d6 8024 	ldr.w	r8, [r6, #36]	; 0x24
  40314c:	f8d8 4008 	ldr.w	r4, [r8, #8]
  403150:	b94c      	cbnz	r4, 403166 <__pow5mult+0x56>
  403152:	f240 2171 	movw	r1, #625	; 0x271
  403156:	4630      	mov	r0, r6
  403158:	f7ff ff44 	bl	402fe4 <__i2b>
  40315c:	2300      	movs	r3, #0
  40315e:	f8c8 0008 	str.w	r0, [r8, #8]
  403162:	4604      	mov	r4, r0
  403164:	6003      	str	r3, [r0, #0]
  403166:	f04f 0800 	mov.w	r8, #0
  40316a:	07eb      	lsls	r3, r5, #31
  40316c:	d50a      	bpl.n	403184 <__pow5mult+0x74>
  40316e:	4639      	mov	r1, r7
  403170:	4622      	mov	r2, r4
  403172:	4630      	mov	r0, r6
  403174:	f7ff ff3f 	bl	402ff6 <__multiply>
  403178:	4639      	mov	r1, r7
  40317a:	4681      	mov	r9, r0
  40317c:	4630      	mov	r0, r6
  40317e:	f7ff fe53 	bl	402e28 <_Bfree>
  403182:	464f      	mov	r7, r9
  403184:	106d      	asrs	r5, r5, #1
  403186:	d00b      	beq.n	4031a0 <__pow5mult+0x90>
  403188:	6820      	ldr	r0, [r4, #0]
  40318a:	b938      	cbnz	r0, 40319c <__pow5mult+0x8c>
  40318c:	4622      	mov	r2, r4
  40318e:	4621      	mov	r1, r4
  403190:	4630      	mov	r0, r6
  403192:	f7ff ff30 	bl	402ff6 <__multiply>
  403196:	6020      	str	r0, [r4, #0]
  403198:	f8c0 8000 	str.w	r8, [r0]
  40319c:	4604      	mov	r4, r0
  40319e:	e7e4      	b.n	40316a <__pow5mult+0x5a>
  4031a0:	4638      	mov	r0, r7
  4031a2:	e8bd 83f8 	ldmia.w	sp!, {r3, r4, r5, r6, r7, r8, r9, pc}
  4031a6:	bf00      	nop
  4031a8:	004044c8 	.word	0x004044c8

004031ac <__lshift>:
  4031ac:	e92d 47f0 	stmdb	sp!, {r4, r5, r6, r7, r8, r9, sl, lr}
  4031b0:	460c      	mov	r4, r1
  4031b2:	ea4f 1a62 	mov.w	sl, r2, asr #5
  4031b6:	6923      	ldr	r3, [r4, #16]
  4031b8:	6849      	ldr	r1, [r1, #4]
  4031ba:	eb0a 0903 	add.w	r9, sl, r3
  4031be:	68a3      	ldr	r3, [r4, #8]
  4031c0:	4607      	mov	r7, r0
  4031c2:	4616      	mov	r6, r2
  4031c4:	f109 0501 	add.w	r5, r9, #1
  4031c8:	42ab      	cmp	r3, r5
  4031ca:	db31      	blt.n	403230 <__lshift+0x84>
  4031cc:	4638      	mov	r0, r7
  4031ce:	f7ff fdf7 	bl	402dc0 <_Balloc>
  4031d2:	2200      	movs	r2, #0
  4031d4:	4680      	mov	r8, r0
  4031d6:	f100 0314 	add.w	r3, r0, #20
  4031da:	4611      	mov	r1, r2
  4031dc:	4552      	cmp	r2, sl
  4031de:	db2a      	blt.n	403236 <__lshift+0x8a>
  4031e0:	6920      	ldr	r0, [r4, #16]
  4031e2:	ea2a 7aea 	bic.w	sl, sl, sl, asr #31
  4031e6:	f104 0114 	add.w	r1, r4, #20
  4031ea:	f016 021f 	ands.w	r2, r6, #31
  4031ee:	eb03 038a 	add.w	r3, r3, sl, lsl #2
  4031f2:	eb01 0e80 	add.w	lr, r1, r0, lsl #2
  4031f6:	d022      	beq.n	40323e <__lshift+0x92>
  4031f8:	f1c2 0c20 	rsb	ip, r2, #32
  4031fc:	2000      	movs	r0, #0
  4031fe:	680e      	ldr	r6, [r1, #0]
  403200:	4096      	lsls	r6, r2
  403202:	4330      	orrs	r0, r6
  403204:	f843 0b04 	str.w	r0, [r3], #4
  403208:	f851 0b04 	ldr.w	r0, [r1], #4
  40320c:	458e      	cmp	lr, r1
  40320e:	fa20 f00c 	lsr.w	r0, r0, ip
  403212:	d8f4      	bhi.n	4031fe <__lshift+0x52>
  403214:	6018      	str	r0, [r3, #0]
  403216:	b108      	cbz	r0, 40321c <__lshift+0x70>
  403218:	f109 0502 	add.w	r5, r9, #2
  40321c:	3d01      	subs	r5, #1
  40321e:	4638      	mov	r0, r7
  403220:	f8c8 5010 	str.w	r5, [r8, #16]
  403224:	4621      	mov	r1, r4
  403226:	f7ff fdff 	bl	402e28 <_Bfree>
  40322a:	4640      	mov	r0, r8
  40322c:	e8bd 87f0 	ldmia.w	sp!, {r4, r5, r6, r7, r8, r9, sl, pc}
  403230:	3101      	adds	r1, #1
  403232:	005b      	lsls	r3, r3, #1
  403234:	e7c8      	b.n	4031c8 <__lshift+0x1c>
  403236:	f843 1022 	str.w	r1, [r3, r2, lsl #2]
  40323a:	3201      	adds	r2, #1
  40323c:	e7ce      	b.n	4031dc <__lshift+0x30>
  40323e:	3b04      	subs	r3, #4
  403240:	f851 2b04 	ldr.w	r2, [r1], #4
  403244:	f843 2f04 	str.w	r2, [r3, #4]!
  403248:	458e      	cmp	lr, r1
  40324a:	d8f9      	bhi.n	403240 <__lshift+0x94>
  40324c:	e7e6      	b.n	40321c <__lshift+0x70>

0040324e <__mcmp>:
  40324e:	6903      	ldr	r3, [r0, #16]
  403250:	690a      	ldr	r2, [r1, #16]
  403252:	1a9b      	subs	r3, r3, r2
  403254:	b530      	push	{r4, r5, lr}
  403256:	d10c      	bne.n	403272 <__mcmp+0x24>
  403258:	0092      	lsls	r2, r2, #2
  40325a:	3014      	adds	r0, #20
  40325c:	3114      	adds	r1, #20
  40325e:	1884      	adds	r4, r0, r2
  403260:	4411      	add	r1, r2
  403262:	f854 5d04 	ldr.w	r5, [r4, #-4]!
  403266:	f851 2d04 	ldr.w	r2, [r1, #-4]!
  40326a:	4295      	cmp	r5, r2
  40326c:	d003      	beq.n	403276 <__mcmp+0x28>
  40326e:	d305      	bcc.n	40327c <__mcmp+0x2e>
  403270:	2301      	movs	r3, #1
  403272:	4618      	mov	r0, r3
  403274:	bd30      	pop	{r4, r5, pc}
  403276:	42a0      	cmp	r0, r4
  403278:	d3f3      	bcc.n	403262 <__mcmp+0x14>
  40327a:	e7fa      	b.n	403272 <__mcmp+0x24>
  40327c:	f04f 33ff 	mov.w	r3, #4294967295
  403280:	e7f7      	b.n	403272 <__mcmp+0x24>

00403282 <__mdiff>:
  403282:	e92d 47f0 	stmdb	sp!, {r4, r5, r6, r7, r8, r9, sl, lr}
  403286:	460d      	mov	r5, r1
  403288:	4607      	mov	r7, r0
  40328a:	4611      	mov	r1, r2
  40328c:	4628      	mov	r0, r5
  40328e:	4614      	mov	r4, r2
  403290:	f7ff ffdd 	bl	40324e <__mcmp>
  403294:	1e06      	subs	r6, r0, #0
  403296:	d108      	bne.n	4032aa <__mdiff+0x28>
  403298:	4631      	mov	r1, r6
  40329a:	4638      	mov	r0, r7
  40329c:	f7ff fd90 	bl	402dc0 <_Balloc>
  4032a0:	2301      	movs	r3, #1
  4032a2:	6103      	str	r3, [r0, #16]
  4032a4:	6146      	str	r6, [r0, #20]
  4032a6:	e8bd 87f0 	ldmia.w	sp!, {r4, r5, r6, r7, r8, r9, sl, pc}
  4032aa:	bfa4      	itt	ge
  4032ac:	4623      	movge	r3, r4
  4032ae:	462c      	movge	r4, r5
  4032b0:	4638      	mov	r0, r7
  4032b2:	6861      	ldr	r1, [r4, #4]
  4032b4:	bfa6      	itte	ge
  4032b6:	461d      	movge	r5, r3
  4032b8:	2600      	movge	r6, #0
  4032ba:	2601      	movlt	r6, #1
  4032bc:	f7ff fd80 	bl	402dc0 <_Balloc>
  4032c0:	692b      	ldr	r3, [r5, #16]
  4032c2:	60c6      	str	r6, [r0, #12]
  4032c4:	6926      	ldr	r6, [r4, #16]
  4032c6:	f105 0914 	add.w	r9, r5, #20
  4032ca:	f104 0214 	add.w	r2, r4, #20
  4032ce:	eb02 0786 	add.w	r7, r2, r6, lsl #2
  4032d2:	eb09 0883 	add.w	r8, r9, r3, lsl #2
  4032d6:	f100 0514 	add.w	r5, r0, #20
  4032da:	f04f 0c00 	mov.w	ip, #0
  4032de:	f852 ab04 	ldr.w	sl, [r2], #4
  4032e2:	f859 4b04 	ldr.w	r4, [r9], #4
  4032e6:	fa1c f18a 	uxtah	r1, ip, sl
  4032ea:	b2a3      	uxth	r3, r4
  4032ec:	1ac9      	subs	r1, r1, r3
  4032ee:	0c23      	lsrs	r3, r4, #16
  4032f0:	ebc3 431a 	rsb	r3, r3, sl, lsr #16
  4032f4:	eb03 4321 	add.w	r3, r3, r1, asr #16
  4032f8:	b289      	uxth	r1, r1
  4032fa:	ea4f 4c23 	mov.w	ip, r3, asr #16
  4032fe:	45c8      	cmp	r8, r9
  403300:	ea41 4303 	orr.w	r3, r1, r3, lsl #16
  403304:	4696      	mov	lr, r2
  403306:	f845 3b04 	str.w	r3, [r5], #4
  40330a:	d8e8      	bhi.n	4032de <__mdiff+0x5c>
  40330c:	45be      	cmp	lr, r7
  40330e:	d305      	bcc.n	40331c <__mdiff+0x9a>
  403310:	f855 3d04 	ldr.w	r3, [r5, #-4]!
  403314:	b18b      	cbz	r3, 40333a <__mdiff+0xb8>
  403316:	6106      	str	r6, [r0, #16]
  403318:	e8bd 87f0 	ldmia.w	sp!, {r4, r5, r6, r7, r8, r9, sl, pc}
  40331c:	f85e 1b04 	ldr.w	r1, [lr], #4
  403320:	fa1c f381 	uxtah	r3, ip, r1
  403324:	141a      	asrs	r2, r3, #16
  403326:	eb02 4211 	add.w	r2, r2, r1, lsr #16
  40332a:	b29b      	uxth	r3, r3
  40332c:	ea43 4302 	orr.w	r3, r3, r2, lsl #16
  403330:	ea4f 4c22 	mov.w	ip, r2, asr #16
  403334:	f845 3b04 	str.w	r3, [r5], #4
  403338:	e7e8      	b.n	40330c <__mdiff+0x8a>
  40333a:	3e01      	subs	r6, #1
  40333c:	e7e8      	b.n	403310 <__mdiff+0x8e>
	...

00403340 <__ulp>:
  403340:	4b10      	ldr	r3, [pc, #64]	; (403384 <__ulp+0x44>)
  403342:	400b      	ands	r3, r1
  403344:	f1a3 7350 	sub.w	r3, r3, #54525952	; 0x3400000
  403348:	2b00      	cmp	r3, #0
  40334a:	dd02      	ble.n	403352 <__ulp+0x12>
  40334c:	2000      	movs	r0, #0
  40334e:	4619      	mov	r1, r3
  403350:	4770      	bx	lr
  403352:	425b      	negs	r3, r3
  403354:	151b      	asrs	r3, r3, #20
  403356:	2b13      	cmp	r3, #19
  403358:	f04f 0000 	mov.w	r0, #0
  40335c:	f04f 0100 	mov.w	r1, #0
  403360:	dc04      	bgt.n	40336c <__ulp+0x2c>
  403362:	f44f 2200 	mov.w	r2, #524288	; 0x80000
  403366:	fa42 f103 	asr.w	r1, r2, r3
  40336a:	4770      	bx	lr
  40336c:	3b14      	subs	r3, #20
  40336e:	2b1e      	cmp	r3, #30
  403370:	f04f 0201 	mov.w	r2, #1
  403374:	bfda      	itte	le
  403376:	f1c3 031f 	rsble	r3, r3, #31
  40337a:	fa02 f303 	lslle.w	r3, r2, r3
  40337e:	4613      	movgt	r3, r2
  403380:	4618      	mov	r0, r3
  403382:	4770      	bx	lr
  403384:	7ff00000 	.word	0x7ff00000

00403388 <__b2d>:
  403388:	e92d 43f8 	stmdb	sp!, {r3, r4, r5, r6, r7, r8, r9, lr}
  40338c:	6907      	ldr	r7, [r0, #16]
  40338e:	f100 0914 	add.w	r9, r0, #20
  403392:	eb09 0787 	add.w	r7, r9, r7, lsl #2
  403396:	f1a7 0804 	sub.w	r8, r7, #4
  40339a:	f857 6c04 	ldr.w	r6, [r7, #-4]
  40339e:	4630      	mov	r0, r6
  4033a0:	f7ff fdd2 	bl	402f48 <__hi0bits>
  4033a4:	f1c0 0320 	rsb	r3, r0, #32
  4033a8:	280a      	cmp	r0, #10
  4033aa:	600b      	str	r3, [r1, #0]
  4033ac:	491e      	ldr	r1, [pc, #120]	; (403428 <__b2d+0xa0>)
  4033ae:	dc17      	bgt.n	4033e0 <__b2d+0x58>
  4033b0:	f1c0 0e0b 	rsb	lr, r0, #11
  4033b4:	45c1      	cmp	r9, r8
  4033b6:	fa26 f30e 	lsr.w	r3, r6, lr
  4033ba:	bf38      	it	cc
  4033bc:	f857 2c08 	ldrcc.w	r2, [r7, #-8]
  4033c0:	ea43 0501 	orr.w	r5, r3, r1
  4033c4:	bf28      	it	cs
  4033c6:	2200      	movcs	r2, #0
  4033c8:	f100 0315 	add.w	r3, r0, #21
  4033cc:	fa06 f303 	lsl.w	r3, r6, r3
  4033d0:	fa22 f20e 	lsr.w	r2, r2, lr
  4033d4:	ea43 0402 	orr.w	r4, r3, r2
  4033d8:	4620      	mov	r0, r4
  4033da:	4629      	mov	r1, r5
  4033dc:	e8bd 83f8 	ldmia.w	sp!, {r3, r4, r5, r6, r7, r8, r9, pc}
  4033e0:	45c1      	cmp	r9, r8
  4033e2:	bf3a      	itte	cc
  4033e4:	f1a7 0808 	subcc.w	r8, r7, #8
  4033e8:	f857 2c08 	ldrcc.w	r2, [r7, #-8]
  4033ec:	2200      	movcs	r2, #0
  4033ee:	f1b0 030b 	subs.w	r3, r0, #11
  4033f2:	d015      	beq.n	403420 <__b2d+0x98>
  4033f4:	409e      	lsls	r6, r3
  4033f6:	f1c3 0720 	rsb	r7, r3, #32
  4033fa:	f046 567f 	orr.w	r6, r6, #1069547520	; 0x3fc00000
  4033fe:	fa22 f107 	lsr.w	r1, r2, r7
  403402:	45c8      	cmp	r8, r9
  403404:	f446 1640 	orr.w	r6, r6, #3145728	; 0x300000
  403408:	ea46 0501 	orr.w	r5, r6, r1
  40340c:	bf8c      	ite	hi
  40340e:	f858 1c04 	ldrhi.w	r1, [r8, #-4]
  403412:	2100      	movls	r1, #0
  403414:	fa02 f003 	lsl.w	r0, r2, r3
  403418:	40f9      	lsrs	r1, r7
  40341a:	ea40 0401 	orr.w	r4, r0, r1
  40341e:	e7db      	b.n	4033d8 <__b2d+0x50>
  403420:	ea46 0501 	orr.w	r5, r6, r1
  403424:	4614      	mov	r4, r2
  403426:	e7d7      	b.n	4033d8 <__b2d+0x50>
  403428:	3ff00000 	.word	0x3ff00000

0040342c <__d2b>:
  40342c:	e92d 41f3 	stmdb	sp!, {r0, r1, r4, r5, r6, r7, r8, lr}
  403430:	2101      	movs	r1, #1
  403432:	461c      	mov	r4, r3
  403434:	4690      	mov	r8, r2
  403436:	9e08      	ldr	r6, [sp, #32]
  403438:	9d09      	ldr	r5, [sp, #36]	; 0x24
  40343a:	f7ff fcc1 	bl	402dc0 <_Balloc>
  40343e:	f3c4 0213 	ubfx	r2, r4, #0, #20
  403442:	f3c4 540a 	ubfx	r4, r4, #20, #11
  403446:	4607      	mov	r7, r0
  403448:	bb34      	cbnz	r4, 403498 <__d2b+0x6c>
  40344a:	9201      	str	r2, [sp, #4]
  40344c:	f1b8 0f00 	cmp.w	r8, #0
  403450:	d027      	beq.n	4034a2 <__d2b+0x76>
  403452:	a802      	add	r0, sp, #8
  403454:	f840 8d08 	str.w	r8, [r0, #-8]!
  403458:	f7ff fd95 	bl	402f86 <__lo0bits>
  40345c:	9900      	ldr	r1, [sp, #0]
  40345e:	b1f0      	cbz	r0, 40349e <__d2b+0x72>
  403460:	9a01      	ldr	r2, [sp, #4]
  403462:	f1c0 0320 	rsb	r3, r0, #32
  403466:	fa02 f303 	lsl.w	r3, r2, r3
  40346a:	430b      	orrs	r3, r1
  40346c:	40c2      	lsrs	r2, r0
  40346e:	617b      	str	r3, [r7, #20]
  403470:	9201      	str	r2, [sp, #4]
  403472:	9b01      	ldr	r3, [sp, #4]
  403474:	61bb      	str	r3, [r7, #24]
  403476:	2b00      	cmp	r3, #0
  403478:	bf14      	ite	ne
  40347a:	2102      	movne	r1, #2
  40347c:	2101      	moveq	r1, #1
  40347e:	6139      	str	r1, [r7, #16]
  403480:	b1c4      	cbz	r4, 4034b4 <__d2b+0x88>
  403482:	f2a4 4433 	subw	r4, r4, #1075	; 0x433
  403486:	4404      	add	r4, r0
  403488:	6034      	str	r4, [r6, #0]
  40348a:	f1c0 0035 	rsb	r0, r0, #53	; 0x35
  40348e:	6028      	str	r0, [r5, #0]
  403490:	4638      	mov	r0, r7
  403492:	b002      	add	sp, #8
  403494:	e8bd 81f0 	ldmia.w	sp!, {r4, r5, r6, r7, r8, pc}
  403498:	f442 1280 	orr.w	r2, r2, #1048576	; 0x100000
  40349c:	e7d5      	b.n	40344a <__d2b+0x1e>
  40349e:	6179      	str	r1, [r7, #20]
  4034a0:	e7e7      	b.n	403472 <__d2b+0x46>
  4034a2:	a801      	add	r0, sp, #4
  4034a4:	f7ff fd6f 	bl	402f86 <__lo0bits>
  4034a8:	9b01      	ldr	r3, [sp, #4]
  4034aa:	617b      	str	r3, [r7, #20]
  4034ac:	2101      	movs	r1, #1
  4034ae:	6139      	str	r1, [r7, #16]
  4034b0:	3020      	adds	r0, #32
  4034b2:	e7e5      	b.n	403480 <__d2b+0x54>
  4034b4:	eb07 0381 	add.w	r3, r7, r1, lsl #2
  4034b8:	f2a0 4032 	subw	r0, r0, #1074	; 0x432
  4034bc:	6030      	str	r0, [r6, #0]
  4034be:	6918      	ldr	r0, [r3, #16]
  4034c0:	f7ff fd42 	bl	402f48 <__hi0bits>
  4034c4:	ebc0 1041 	rsb	r0, r0, r1, lsl #5
  4034c8:	e7e1      	b.n	40348e <__d2b+0x62>

004034ca <__ratio>:
  4034ca:	e92d 4373 	stmdb	sp!, {r0, r1, r4, r5, r6, r8, r9, lr}
  4034ce:	4688      	mov	r8, r1
  4034d0:	4669      	mov	r1, sp
  4034d2:	4681      	mov	r9, r0
  4034d4:	f7ff ff58 	bl	403388 <__b2d>
  4034d8:	460d      	mov	r5, r1
  4034da:	4604      	mov	r4, r0
  4034dc:	a901      	add	r1, sp, #4
  4034de:	4640      	mov	r0, r8
  4034e0:	f7ff ff52 	bl	403388 <__b2d>
  4034e4:	f8d9 3010 	ldr.w	r3, [r9, #16]
  4034e8:	f8d8 2010 	ldr.w	r2, [r8, #16]
  4034ec:	9e00      	ldr	r6, [sp, #0]
  4034ee:	1a9a      	subs	r2, r3, r2
  4034f0:	9b01      	ldr	r3, [sp, #4]
  4034f2:	1af3      	subs	r3, r6, r3
  4034f4:	eb03 1342 	add.w	r3, r3, r2, lsl #5
  4034f8:	2b00      	cmp	r3, #0
  4034fa:	bfd6      	itet	le
  4034fc:	ebc3 3303 	rsble	r3, r3, r3, lsl #12
  403500:	eb05 5503 	addgt.w	r5, r5, r3, lsl #20
  403504:	eb01 5103 	addle.w	r1, r1, r3, lsl #20
  403508:	4602      	mov	r2, r0
  40350a:	460b      	mov	r3, r1
  40350c:	4620      	mov	r0, r4
  40350e:	4629      	mov	r1, r5
  403510:	f000 fbd2 	bl	403cb8 <__aeabi_ddiv>
  403514:	b002      	add	sp, #8
  403516:	e8bd 8370 	ldmia.w	sp!, {r4, r5, r6, r8, r9, pc}

0040351a <__copybits>:
  40351a:	3901      	subs	r1, #1
  40351c:	b510      	push	{r4, lr}
  40351e:	1149      	asrs	r1, r1, #5
  403520:	6914      	ldr	r4, [r2, #16]
  403522:	3101      	adds	r1, #1
  403524:	f102 0314 	add.w	r3, r2, #20
  403528:	eb00 0181 	add.w	r1, r0, r1, lsl #2
  40352c:	eb03 0484 	add.w	r4, r3, r4, lsl #2
  403530:	42a3      	cmp	r3, r4
  403532:	4602      	mov	r2, r0
  403534:	d303      	bcc.n	40353e <__copybits+0x24>
  403536:	2300      	movs	r3, #0
  403538:	428a      	cmp	r2, r1
  40353a:	d305      	bcc.n	403548 <__copybits+0x2e>
  40353c:	bd10      	pop	{r4, pc}
  40353e:	f853 2b04 	ldr.w	r2, [r3], #4
  403542:	f840 2b04 	str.w	r2, [r0], #4
  403546:	e7f3      	b.n	403530 <__copybits+0x16>
  403548:	f842 3b04 	str.w	r3, [r2], #4
  40354c:	e7f4      	b.n	403538 <__copybits+0x1e>

0040354e <__any_on>:
  40354e:	f100 0214 	add.w	r2, r0, #20
  403552:	6900      	ldr	r0, [r0, #16]
  403554:	114b      	asrs	r3, r1, #5
  403556:	4298      	cmp	r0, r3
  403558:	b510      	push	{r4, lr}
  40355a:	db11      	blt.n	403580 <__any_on+0x32>
  40355c:	dd0a      	ble.n	403574 <__any_on+0x26>
  40355e:	f011 011f 	ands.w	r1, r1, #31
  403562:	d007      	beq.n	403574 <__any_on+0x26>
  403564:	f852 4023 	ldr.w	r4, [r2, r3, lsl #2]
  403568:	fa24 f001 	lsr.w	r0, r4, r1
  40356c:	fa00 f101 	lsl.w	r1, r0, r1
  403570:	428c      	cmp	r4, r1
  403572:	d10b      	bne.n	40358c <__any_on+0x3e>
  403574:	eb02 0383 	add.w	r3, r2, r3, lsl #2
  403578:	4293      	cmp	r3, r2
  40357a:	d803      	bhi.n	403584 <__any_on+0x36>
  40357c:	2000      	movs	r0, #0
  40357e:	bd10      	pop	{r4, pc}
  403580:	4603      	mov	r3, r0
  403582:	e7f7      	b.n	403574 <__any_on+0x26>
  403584:	f853 1d04 	ldr.w	r1, [r3, #-4]!
  403588:	2900      	cmp	r1, #0
  40358a:	d0f5      	beq.n	403578 <__any_on+0x2a>
  40358c:	2001      	movs	r0, #1
  40358e:	bd10      	pop	{r4, pc}

00403590 <_calloc_r>:
  403590:	b538      	push	{r3, r4, r5, lr}
  403592:	fb02 f401 	mul.w	r4, r2, r1
  403596:	4621      	mov	r1, r4
  403598:	f000 f808 	bl	4035ac <_malloc_r>
  40359c:	4605      	mov	r5, r0
  40359e:	b118      	cbz	r0, 4035a8 <_calloc_r+0x18>
  4035a0:	4622      	mov	r2, r4
  4035a2:	2100      	movs	r1, #0
  4035a4:	f7fe f9d5 	bl	401952 <memset>
  4035a8:	4628      	mov	r0, r5
  4035aa:	bd38      	pop	{r3, r4, r5, pc}

004035ac <_malloc_r>:
  4035ac:	b570      	push	{r4, r5, r6, lr}
  4035ae:	1ccd      	adds	r5, r1, #3
  4035b0:	f025 0503 	bic.w	r5, r5, #3
  4035b4:	3508      	adds	r5, #8
  4035b6:	2d0c      	cmp	r5, #12
  4035b8:	bf38      	it	cc
  4035ba:	250c      	movcc	r5, #12
  4035bc:	2d00      	cmp	r5, #0
  4035be:	4606      	mov	r6, r0
  4035c0:	db01      	blt.n	4035c6 <_malloc_r+0x1a>
  4035c2:	42a9      	cmp	r1, r5
  4035c4:	d903      	bls.n	4035ce <_malloc_r+0x22>
  4035c6:	230c      	movs	r3, #12
  4035c8:	6033      	str	r3, [r6, #0]
  4035ca:	2000      	movs	r0, #0
  4035cc:	bd70      	pop	{r4, r5, r6, pc}
  4035ce:	f000 f88f 	bl	4036f0 <__malloc_lock>
  4035d2:	4a23      	ldr	r2, [pc, #140]	; (403660 <_malloc_r+0xb4>)
  4035d4:	6814      	ldr	r4, [r2, #0]
  4035d6:	4621      	mov	r1, r4
  4035d8:	b991      	cbnz	r1, 403600 <_malloc_r+0x54>
  4035da:	4c22      	ldr	r4, [pc, #136]	; (403664 <_malloc_r+0xb8>)
  4035dc:	6823      	ldr	r3, [r4, #0]
  4035de:	b91b      	cbnz	r3, 4035e8 <_malloc_r+0x3c>
  4035e0:	4630      	mov	r0, r6
  4035e2:	f000 f841 	bl	403668 <_sbrk_r>
  4035e6:	6020      	str	r0, [r4, #0]
  4035e8:	4629      	mov	r1, r5
  4035ea:	4630      	mov	r0, r6
  4035ec:	f000 f83c 	bl	403668 <_sbrk_r>
  4035f0:	1c43      	adds	r3, r0, #1
  4035f2:	d126      	bne.n	403642 <_malloc_r+0x96>
  4035f4:	230c      	movs	r3, #12
  4035f6:	6033      	str	r3, [r6, #0]
  4035f8:	4630      	mov	r0, r6
  4035fa:	f000 f87a 	bl	4036f2 <__malloc_unlock>
  4035fe:	e7e4      	b.n	4035ca <_malloc_r+0x1e>
  403600:	680b      	ldr	r3, [r1, #0]
  403602:	1b5b      	subs	r3, r3, r5
  403604:	d41a      	bmi.n	40363c <_malloc_r+0x90>
  403606:	2b0b      	cmp	r3, #11
  403608:	d90f      	bls.n	40362a <_malloc_r+0x7e>
  40360a:	600b      	str	r3, [r1, #0]
  40360c:	50cd      	str	r5, [r1, r3]
  40360e:	18cc      	adds	r4, r1, r3
  403610:	4630      	mov	r0, r6
  403612:	f000 f86e 	bl	4036f2 <__malloc_unlock>
  403616:	f104 000b 	add.w	r0, r4, #11
  40361a:	1d23      	adds	r3, r4, #4
  40361c:	f020 0007 	bic.w	r0, r0, #7
  403620:	1ac3      	subs	r3, r0, r3
  403622:	d01b      	beq.n	40365c <_malloc_r+0xb0>
  403624:	425a      	negs	r2, r3
  403626:	50e2      	str	r2, [r4, r3]
  403628:	bd70      	pop	{r4, r5, r6, pc}
  40362a:	428c      	cmp	r4, r1
  40362c:	bf0d      	iteet	eq
  40362e:	6863      	ldreq	r3, [r4, #4]
  403630:	684b      	ldrne	r3, [r1, #4]
  403632:	6063      	strne	r3, [r4, #4]
  403634:	6013      	streq	r3, [r2, #0]
  403636:	bf18      	it	ne
  403638:	460c      	movne	r4, r1
  40363a:	e7e9      	b.n	403610 <_malloc_r+0x64>
  40363c:	460c      	mov	r4, r1
  40363e:	6849      	ldr	r1, [r1, #4]
  403640:	e7ca      	b.n	4035d8 <_malloc_r+0x2c>
  403642:	1cc4      	adds	r4, r0, #3
  403644:	f024 0403 	bic.w	r4, r4, #3
  403648:	42a0      	cmp	r0, r4
  40364a:	d005      	beq.n	403658 <_malloc_r+0xac>
  40364c:	1a21      	subs	r1, r4, r0
  40364e:	4630      	mov	r0, r6
  403650:	f000 f80a 	bl	403668 <_sbrk_r>
  403654:	3001      	adds	r0, #1
  403656:	d0cd      	beq.n	4035f4 <_malloc_r+0x48>
  403658:	6025      	str	r5, [r4, #0]
  40365a:	e7d9      	b.n	403610 <_malloc_r+0x64>
  40365c:	bd70      	pop	{r4, r5, r6, pc}
  40365e:	bf00      	nop
  403660:	2040045c 	.word	0x2040045c
  403664:	20400460 	.word	0x20400460

00403668 <_sbrk_r>:
  403668:	b538      	push	{r3, r4, r5, lr}
  40366a:	4c06      	ldr	r4, [pc, #24]	; (403684 <_sbrk_r+0x1c>)
  40366c:	2300      	movs	r3, #0
  40366e:	4605      	mov	r5, r0
  403670:	4608      	mov	r0, r1
  403672:	6023      	str	r3, [r4, #0]
  403674:	f7fd fabe 	bl	400bf4 <_sbrk>
  403678:	1c43      	adds	r3, r0, #1
  40367a:	d102      	bne.n	403682 <_sbrk_r+0x1a>
  40367c:	6823      	ldr	r3, [r4, #0]
  40367e:	b103      	cbz	r3, 403682 <_sbrk_r+0x1a>
  403680:	602b      	str	r3, [r5, #0]
  403682:	bd38      	pop	{r3, r4, r5, pc}
  403684:	20400910 	.word	0x20400910

00403688 <nanf>:
  403688:	4800      	ldr	r0, [pc, #0]	; (40368c <nanf+0x4>)
  40368a:	4770      	bx	lr
  40368c:	7fc00000 	.word	0x7fc00000

00403690 <strlen>:
  403690:	4603      	mov	r3, r0
  403692:	f813 2b01 	ldrb.w	r2, [r3], #1
  403696:	2a00      	cmp	r2, #0
  403698:	d1fb      	bne.n	403692 <strlen+0x2>
  40369a:	1a18      	subs	r0, r3, r0
  40369c:	3801      	subs	r0, #1
  40369e:	4770      	bx	lr

004036a0 <strncmp>:
  4036a0:	b510      	push	{r4, lr}
  4036a2:	b16a      	cbz	r2, 4036c0 <strncmp+0x20>
  4036a4:	3901      	subs	r1, #1
  4036a6:	1884      	adds	r4, r0, r2
  4036a8:	f810 3b01 	ldrb.w	r3, [r0], #1
  4036ac:	f811 2f01 	ldrb.w	r2, [r1, #1]!
  4036b0:	4293      	cmp	r3, r2
  4036b2:	d103      	bne.n	4036bc <strncmp+0x1c>
  4036b4:	42a0      	cmp	r0, r4
  4036b6:	d001      	beq.n	4036bc <strncmp+0x1c>
  4036b8:	2b00      	cmp	r3, #0
  4036ba:	d1f5      	bne.n	4036a8 <strncmp+0x8>
  4036bc:	1a98      	subs	r0, r3, r2
  4036be:	bd10      	pop	{r4, pc}
  4036c0:	4610      	mov	r0, r2
  4036c2:	bd10      	pop	{r4, pc}

004036c4 <__ascii_wctomb>:
  4036c4:	b149      	cbz	r1, 4036da <__ascii_wctomb+0x16>
  4036c6:	2aff      	cmp	r2, #255	; 0xff
  4036c8:	bf85      	ittet	hi
  4036ca:	238a      	movhi	r3, #138	; 0x8a
  4036cc:	6003      	strhi	r3, [r0, #0]
  4036ce:	700a      	strbls	r2, [r1, #0]
  4036d0:	f04f 30ff 	movhi.w	r0, #4294967295
  4036d4:	bf98      	it	ls
  4036d6:	2001      	movls	r0, #1
  4036d8:	4770      	bx	lr
  4036da:	4608      	mov	r0, r1
  4036dc:	4770      	bx	lr
	...

004036e0 <malloc>:
  4036e0:	4b02      	ldr	r3, [pc, #8]	; (4036ec <malloc+0xc>)
  4036e2:	4601      	mov	r1, r0
  4036e4:	6818      	ldr	r0, [r3, #0]
  4036e6:	f7ff bf61 	b.w	4035ac <_malloc_r>
  4036ea:	bf00      	nop
  4036ec:	2040003c 	.word	0x2040003c

004036f0 <__malloc_lock>:
  4036f0:	4770      	bx	lr

004036f2 <__malloc_unlock>:
  4036f2:	4770      	bx	lr

004036f4 <__aeabi_drsub>:
  4036f4:	f081 4100 	eor.w	r1, r1, #2147483648	; 0x80000000
  4036f8:	e002      	b.n	403700 <__adddf3>
  4036fa:	bf00      	nop

004036fc <__aeabi_dsub>:
  4036fc:	f083 4300 	eor.w	r3, r3, #2147483648	; 0x80000000

00403700 <__adddf3>:
  403700:	b530      	push	{r4, r5, lr}
  403702:	ea4f 0441 	mov.w	r4, r1, lsl #1
  403706:	ea4f 0543 	mov.w	r5, r3, lsl #1
  40370a:	ea94 0f05 	teq	r4, r5
  40370e:	bf08      	it	eq
  403710:	ea90 0f02 	teqeq	r0, r2
  403714:	bf1f      	itttt	ne
  403716:	ea54 0c00 	orrsne.w	ip, r4, r0
  40371a:	ea55 0c02 	orrsne.w	ip, r5, r2
  40371e:	ea7f 5c64 	mvnsne.w	ip, r4, asr #21
  403722:	ea7f 5c65 	mvnsne.w	ip, r5, asr #21
  403726:	f000 80e2 	beq.w	4038ee <__adddf3+0x1ee>
  40372a:	ea4f 5454 	mov.w	r4, r4, lsr #21
  40372e:	ebd4 5555 	rsbs	r5, r4, r5, lsr #21
  403732:	bfb8      	it	lt
  403734:	426d      	neglt	r5, r5
  403736:	dd0c      	ble.n	403752 <__adddf3+0x52>
  403738:	442c      	add	r4, r5
  40373a:	ea80 0202 	eor.w	r2, r0, r2
  40373e:	ea81 0303 	eor.w	r3, r1, r3
  403742:	ea82 0000 	eor.w	r0, r2, r0
  403746:	ea83 0101 	eor.w	r1, r3, r1
  40374a:	ea80 0202 	eor.w	r2, r0, r2
  40374e:	ea81 0303 	eor.w	r3, r1, r3
  403752:	2d36      	cmp	r5, #54	; 0x36
  403754:	bf88      	it	hi
  403756:	bd30      	pophi	{r4, r5, pc}
  403758:	f011 4f00 	tst.w	r1, #2147483648	; 0x80000000
  40375c:	ea4f 3101 	mov.w	r1, r1, lsl #12
  403760:	f44f 1c80 	mov.w	ip, #1048576	; 0x100000
  403764:	ea4c 3111 	orr.w	r1, ip, r1, lsr #12
  403768:	d002      	beq.n	403770 <__adddf3+0x70>
  40376a:	4240      	negs	r0, r0
  40376c:	eb61 0141 	sbc.w	r1, r1, r1, lsl #1
  403770:	f013 4f00 	tst.w	r3, #2147483648	; 0x80000000
  403774:	ea4f 3303 	mov.w	r3, r3, lsl #12
  403778:	ea4c 3313 	orr.w	r3, ip, r3, lsr #12
  40377c:	d002      	beq.n	403784 <__adddf3+0x84>
  40377e:	4252      	negs	r2, r2
  403780:	eb63 0343 	sbc.w	r3, r3, r3, lsl #1
  403784:	ea94 0f05 	teq	r4, r5
  403788:	f000 80a7 	beq.w	4038da <__adddf3+0x1da>
  40378c:	f1a4 0401 	sub.w	r4, r4, #1
  403790:	f1d5 0e20 	rsbs	lr, r5, #32
  403794:	db0d      	blt.n	4037b2 <__adddf3+0xb2>
  403796:	fa02 fc0e 	lsl.w	ip, r2, lr
  40379a:	fa22 f205 	lsr.w	r2, r2, r5
  40379e:	1880      	adds	r0, r0, r2
  4037a0:	f141 0100 	adc.w	r1, r1, #0
  4037a4:	fa03 f20e 	lsl.w	r2, r3, lr
  4037a8:	1880      	adds	r0, r0, r2
  4037aa:	fa43 f305 	asr.w	r3, r3, r5
  4037ae:	4159      	adcs	r1, r3
  4037b0:	e00e      	b.n	4037d0 <__adddf3+0xd0>
  4037b2:	f1a5 0520 	sub.w	r5, r5, #32
  4037b6:	f10e 0e20 	add.w	lr, lr, #32
  4037ba:	2a01      	cmp	r2, #1
  4037bc:	fa03 fc0e 	lsl.w	ip, r3, lr
  4037c0:	bf28      	it	cs
  4037c2:	f04c 0c02 	orrcs.w	ip, ip, #2
  4037c6:	fa43 f305 	asr.w	r3, r3, r5
  4037ca:	18c0      	adds	r0, r0, r3
  4037cc:	eb51 71e3 	adcs.w	r1, r1, r3, asr #31
  4037d0:	f001 4500 	and.w	r5, r1, #2147483648	; 0x80000000
  4037d4:	d507      	bpl.n	4037e6 <__adddf3+0xe6>
  4037d6:	f04f 0e00 	mov.w	lr, #0
  4037da:	f1dc 0c00 	rsbs	ip, ip, #0
  4037de:	eb7e 0000 	sbcs.w	r0, lr, r0
  4037e2:	eb6e 0101 	sbc.w	r1, lr, r1
  4037e6:	f5b1 1f80 	cmp.w	r1, #1048576	; 0x100000
  4037ea:	d31b      	bcc.n	403824 <__adddf3+0x124>
  4037ec:	f5b1 1f00 	cmp.w	r1, #2097152	; 0x200000
  4037f0:	d30c      	bcc.n	40380c <__adddf3+0x10c>
  4037f2:	0849      	lsrs	r1, r1, #1
  4037f4:	ea5f 0030 	movs.w	r0, r0, rrx
  4037f8:	ea4f 0c3c 	mov.w	ip, ip, rrx
  4037fc:	f104 0401 	add.w	r4, r4, #1
  403800:	ea4f 5244 	mov.w	r2, r4, lsl #21
  403804:	f512 0f80 	cmn.w	r2, #4194304	; 0x400000
  403808:	f080 809a 	bcs.w	403940 <__adddf3+0x240>
  40380c:	f1bc 4f00 	cmp.w	ip, #2147483648	; 0x80000000
  403810:	bf08      	it	eq
  403812:	ea5f 0c50 	movseq.w	ip, r0, lsr #1
  403816:	f150 0000 	adcs.w	r0, r0, #0
  40381a:	eb41 5104 	adc.w	r1, r1, r4, lsl #20
  40381e:	ea41 0105 	orr.w	r1, r1, r5
  403822:	bd30      	pop	{r4, r5, pc}
  403824:	ea5f 0c4c 	movs.w	ip, ip, lsl #1
  403828:	4140      	adcs	r0, r0
  40382a:	eb41 0101 	adc.w	r1, r1, r1
  40382e:	f411 1f80 	tst.w	r1, #1048576	; 0x100000
  403832:	f1a4 0401 	sub.w	r4, r4, #1
  403836:	d1e9      	bne.n	40380c <__adddf3+0x10c>
  403838:	f091 0f00 	teq	r1, #0
  40383c:	bf04      	itt	eq
  40383e:	4601      	moveq	r1, r0
  403840:	2000      	moveq	r0, #0
  403842:	fab1 f381 	clz	r3, r1
  403846:	bf08      	it	eq
  403848:	3320      	addeq	r3, #32
  40384a:	f1a3 030b 	sub.w	r3, r3, #11
  40384e:	f1b3 0220 	subs.w	r2, r3, #32
  403852:	da0c      	bge.n	40386e <__adddf3+0x16e>
  403854:	320c      	adds	r2, #12
  403856:	dd08      	ble.n	40386a <__adddf3+0x16a>
  403858:	f102 0c14 	add.w	ip, r2, #20
  40385c:	f1c2 020c 	rsb	r2, r2, #12
  403860:	fa01 f00c 	lsl.w	r0, r1, ip
  403864:	fa21 f102 	lsr.w	r1, r1, r2
  403868:	e00c      	b.n	403884 <__adddf3+0x184>
  40386a:	f102 0214 	add.w	r2, r2, #20
  40386e:	bfd8      	it	le
  403870:	f1c2 0c20 	rsble	ip, r2, #32
  403874:	fa01 f102 	lsl.w	r1, r1, r2
  403878:	fa20 fc0c 	lsr.w	ip, r0, ip
  40387c:	bfdc      	itt	le
  40387e:	ea41 010c 	orrle.w	r1, r1, ip
  403882:	4090      	lslle	r0, r2
  403884:	1ae4      	subs	r4, r4, r3
  403886:	bfa2      	ittt	ge
  403888:	eb01 5104 	addge.w	r1, r1, r4, lsl #20
  40388c:	4329      	orrge	r1, r5
  40388e:	bd30      	popge	{r4, r5, pc}
  403890:	ea6f 0404 	mvn.w	r4, r4
  403894:	3c1f      	subs	r4, #31
  403896:	da1c      	bge.n	4038d2 <__adddf3+0x1d2>
  403898:	340c      	adds	r4, #12
  40389a:	dc0e      	bgt.n	4038ba <__adddf3+0x1ba>
  40389c:	f104 0414 	add.w	r4, r4, #20
  4038a0:	f1c4 0220 	rsb	r2, r4, #32
  4038a4:	fa20 f004 	lsr.w	r0, r0, r4
  4038a8:	fa01 f302 	lsl.w	r3, r1, r2
  4038ac:	ea40 0003 	orr.w	r0, r0, r3
  4038b0:	fa21 f304 	lsr.w	r3, r1, r4
  4038b4:	ea45 0103 	orr.w	r1, r5, r3
  4038b8:	bd30      	pop	{r4, r5, pc}
  4038ba:	f1c4 040c 	rsb	r4, r4, #12
  4038be:	f1c4 0220 	rsb	r2, r4, #32
  4038c2:	fa20 f002 	lsr.w	r0, r0, r2
  4038c6:	fa01 f304 	lsl.w	r3, r1, r4
  4038ca:	ea40 0003 	orr.w	r0, r0, r3
  4038ce:	4629      	mov	r1, r5
  4038d0:	bd30      	pop	{r4, r5, pc}
  4038d2:	fa21 f004 	lsr.w	r0, r1, r4
  4038d6:	4629      	mov	r1, r5
  4038d8:	bd30      	pop	{r4, r5, pc}
  4038da:	f094 0f00 	teq	r4, #0
  4038de:	f483 1380 	eor.w	r3, r3, #1048576	; 0x100000
  4038e2:	bf06      	itte	eq
  4038e4:	f481 1180 	eoreq.w	r1, r1, #1048576	; 0x100000
  4038e8:	3401      	addeq	r4, #1
  4038ea:	3d01      	subne	r5, #1
  4038ec:	e74e      	b.n	40378c <__adddf3+0x8c>
  4038ee:	ea7f 5c64 	mvns.w	ip, r4, asr #21
  4038f2:	bf18      	it	ne
  4038f4:	ea7f 5c65 	mvnsne.w	ip, r5, asr #21
  4038f8:	d029      	beq.n	40394e <__adddf3+0x24e>
  4038fa:	ea94 0f05 	teq	r4, r5
  4038fe:	bf08      	it	eq
  403900:	ea90 0f02 	teqeq	r0, r2
  403904:	d005      	beq.n	403912 <__adddf3+0x212>
  403906:	ea54 0c00 	orrs.w	ip, r4, r0
  40390a:	bf04      	itt	eq
  40390c:	4619      	moveq	r1, r3
  40390e:	4610      	moveq	r0, r2
  403910:	bd30      	pop	{r4, r5, pc}
  403912:	ea91 0f03 	teq	r1, r3
  403916:	bf1e      	ittt	ne
  403918:	2100      	movne	r1, #0
  40391a:	2000      	movne	r0, #0
  40391c:	bd30      	popne	{r4, r5, pc}
  40391e:	ea5f 5c54 	movs.w	ip, r4, lsr #21
  403922:	d105      	bne.n	403930 <__adddf3+0x230>
  403924:	0040      	lsls	r0, r0, #1
  403926:	4149      	adcs	r1, r1
  403928:	bf28      	it	cs
  40392a:	f041 4100 	orrcs.w	r1, r1, #2147483648	; 0x80000000
  40392e:	bd30      	pop	{r4, r5, pc}
  403930:	f514 0480 	adds.w	r4, r4, #4194304	; 0x400000
  403934:	bf3c      	itt	cc
  403936:	f501 1180 	addcc.w	r1, r1, #1048576	; 0x100000
  40393a:	bd30      	popcc	{r4, r5, pc}
  40393c:	f001 4500 	and.w	r5, r1, #2147483648	; 0x80000000
  403940:	f045 41fe 	orr.w	r1, r5, #2130706432	; 0x7f000000
  403944:	f441 0170 	orr.w	r1, r1, #15728640	; 0xf00000
  403948:	f04f 0000 	mov.w	r0, #0
  40394c:	bd30      	pop	{r4, r5, pc}
  40394e:	ea7f 5c64 	mvns.w	ip, r4, asr #21
  403952:	bf1a      	itte	ne
  403954:	4619      	movne	r1, r3
  403956:	4610      	movne	r0, r2
  403958:	ea7f 5c65 	mvnseq.w	ip, r5, asr #21
  40395c:	bf1c      	itt	ne
  40395e:	460b      	movne	r3, r1
  403960:	4602      	movne	r2, r0
  403962:	ea50 3401 	orrs.w	r4, r0, r1, lsl #12
  403966:	bf06      	itte	eq
  403968:	ea52 3503 	orrseq.w	r5, r2, r3, lsl #12
  40396c:	ea91 0f03 	teqeq	r1, r3
  403970:	f441 2100 	orrne.w	r1, r1, #524288	; 0x80000
  403974:	bd30      	pop	{r4, r5, pc}
  403976:	bf00      	nop

00403978 <__aeabi_ui2d>:
  403978:	f090 0f00 	teq	r0, #0
  40397c:	bf04      	itt	eq
  40397e:	2100      	moveq	r1, #0
  403980:	4770      	bxeq	lr
  403982:	b530      	push	{r4, r5, lr}
  403984:	f44f 6480 	mov.w	r4, #1024	; 0x400
  403988:	f104 0432 	add.w	r4, r4, #50	; 0x32
  40398c:	f04f 0500 	mov.w	r5, #0
  403990:	f04f 0100 	mov.w	r1, #0
  403994:	e750      	b.n	403838 <__adddf3+0x138>
  403996:	bf00      	nop

00403998 <__aeabi_i2d>:
  403998:	f090 0f00 	teq	r0, #0
  40399c:	bf04      	itt	eq
  40399e:	2100      	moveq	r1, #0
  4039a0:	4770      	bxeq	lr
  4039a2:	b530      	push	{r4, r5, lr}
  4039a4:	f44f 6480 	mov.w	r4, #1024	; 0x400
  4039a8:	f104 0432 	add.w	r4, r4, #50	; 0x32
  4039ac:	f010 4500 	ands.w	r5, r0, #2147483648	; 0x80000000
  4039b0:	bf48      	it	mi
  4039b2:	4240      	negmi	r0, r0
  4039b4:	f04f 0100 	mov.w	r1, #0
  4039b8:	e73e      	b.n	403838 <__adddf3+0x138>
  4039ba:	bf00      	nop

004039bc <__aeabi_f2d>:
  4039bc:	0042      	lsls	r2, r0, #1
  4039be:	ea4f 01e2 	mov.w	r1, r2, asr #3
  4039c2:	ea4f 0131 	mov.w	r1, r1, rrx
  4039c6:	ea4f 7002 	mov.w	r0, r2, lsl #28
  4039ca:	bf1f      	itttt	ne
  4039cc:	f012 437f 	andsne.w	r3, r2, #4278190080	; 0xff000000
  4039d0:	f093 4f7f 	teqne	r3, #4278190080	; 0xff000000
  4039d4:	f081 5160 	eorne.w	r1, r1, #939524096	; 0x38000000
  4039d8:	4770      	bxne	lr
  4039da:	f092 0f00 	teq	r2, #0
  4039de:	bf14      	ite	ne
  4039e0:	f093 4f7f 	teqne	r3, #4278190080	; 0xff000000
  4039e4:	4770      	bxeq	lr
  4039e6:	b530      	push	{r4, r5, lr}
  4039e8:	f44f 7460 	mov.w	r4, #896	; 0x380
  4039ec:	f001 4500 	and.w	r5, r1, #2147483648	; 0x80000000
  4039f0:	f021 4100 	bic.w	r1, r1, #2147483648	; 0x80000000
  4039f4:	e720      	b.n	403838 <__adddf3+0x138>
  4039f6:	bf00      	nop

004039f8 <__aeabi_ul2d>:
  4039f8:	ea50 0201 	orrs.w	r2, r0, r1
  4039fc:	bf08      	it	eq
  4039fe:	4770      	bxeq	lr
  403a00:	b530      	push	{r4, r5, lr}
  403a02:	f04f 0500 	mov.w	r5, #0
  403a06:	e00a      	b.n	403a1e <__aeabi_l2d+0x16>

00403a08 <__aeabi_l2d>:
  403a08:	ea50 0201 	orrs.w	r2, r0, r1
  403a0c:	bf08      	it	eq
  403a0e:	4770      	bxeq	lr
  403a10:	b530      	push	{r4, r5, lr}
  403a12:	f011 4500 	ands.w	r5, r1, #2147483648	; 0x80000000
  403a16:	d502      	bpl.n	403a1e <__aeabi_l2d+0x16>
  403a18:	4240      	negs	r0, r0
  403a1a:	eb61 0141 	sbc.w	r1, r1, r1, lsl #1
  403a1e:	f44f 6480 	mov.w	r4, #1024	; 0x400
  403a22:	f104 0432 	add.w	r4, r4, #50	; 0x32
  403a26:	ea5f 5c91 	movs.w	ip, r1, lsr #22
  403a2a:	f43f aedc 	beq.w	4037e6 <__adddf3+0xe6>
  403a2e:	f04f 0203 	mov.w	r2, #3
  403a32:	ea5f 0cdc 	movs.w	ip, ip, lsr #3
  403a36:	bf18      	it	ne
  403a38:	3203      	addne	r2, #3
  403a3a:	ea5f 0cdc 	movs.w	ip, ip, lsr #3
  403a3e:	bf18      	it	ne
  403a40:	3203      	addne	r2, #3
  403a42:	eb02 02dc 	add.w	r2, r2, ip, lsr #3
  403a46:	f1c2 0320 	rsb	r3, r2, #32
  403a4a:	fa00 fc03 	lsl.w	ip, r0, r3
  403a4e:	fa20 f002 	lsr.w	r0, r0, r2
  403a52:	fa01 fe03 	lsl.w	lr, r1, r3
  403a56:	ea40 000e 	orr.w	r0, r0, lr
  403a5a:	fa21 f102 	lsr.w	r1, r1, r2
  403a5e:	4414      	add	r4, r2
  403a60:	e6c1      	b.n	4037e6 <__adddf3+0xe6>
  403a62:	bf00      	nop

00403a64 <__aeabi_dmul>:
  403a64:	b570      	push	{r4, r5, r6, lr}
  403a66:	f04f 0cff 	mov.w	ip, #255	; 0xff
  403a6a:	f44c 6ce0 	orr.w	ip, ip, #1792	; 0x700
  403a6e:	ea1c 5411 	ands.w	r4, ip, r1, lsr #20
  403a72:	bf1d      	ittte	ne
  403a74:	ea1c 5513 	andsne.w	r5, ip, r3, lsr #20
  403a78:	ea94 0f0c 	teqne	r4, ip
  403a7c:	ea95 0f0c 	teqne	r5, ip
  403a80:	f000 f8de 	bleq	403c40 <__aeabi_dmul+0x1dc>
  403a84:	442c      	add	r4, r5
  403a86:	ea81 0603 	eor.w	r6, r1, r3
  403a8a:	ea21 514c 	bic.w	r1, r1, ip, lsl #21
  403a8e:	ea23 534c 	bic.w	r3, r3, ip, lsl #21
  403a92:	ea50 3501 	orrs.w	r5, r0, r1, lsl #12
  403a96:	bf18      	it	ne
  403a98:	ea52 3503 	orrsne.w	r5, r2, r3, lsl #12
  403a9c:	f441 1180 	orr.w	r1, r1, #1048576	; 0x100000
  403aa0:	f443 1380 	orr.w	r3, r3, #1048576	; 0x100000
  403aa4:	d038      	beq.n	403b18 <__aeabi_dmul+0xb4>
  403aa6:	fba0 ce02 	umull	ip, lr, r0, r2
  403aaa:	f04f 0500 	mov.w	r5, #0
  403aae:	fbe1 e502 	umlal	lr, r5, r1, r2
  403ab2:	f006 4200 	and.w	r2, r6, #2147483648	; 0x80000000
  403ab6:	fbe0 e503 	umlal	lr, r5, r0, r3
  403aba:	f04f 0600 	mov.w	r6, #0
  403abe:	fbe1 5603 	umlal	r5, r6, r1, r3
  403ac2:	f09c 0f00 	teq	ip, #0
  403ac6:	bf18      	it	ne
  403ac8:	f04e 0e01 	orrne.w	lr, lr, #1
  403acc:	f1a4 04ff 	sub.w	r4, r4, #255	; 0xff
  403ad0:	f5b6 7f00 	cmp.w	r6, #512	; 0x200
  403ad4:	f564 7440 	sbc.w	r4, r4, #768	; 0x300
  403ad8:	d204      	bcs.n	403ae4 <__aeabi_dmul+0x80>
  403ada:	ea5f 0e4e 	movs.w	lr, lr, lsl #1
  403ade:	416d      	adcs	r5, r5
  403ae0:	eb46 0606 	adc.w	r6, r6, r6
  403ae4:	ea42 21c6 	orr.w	r1, r2, r6, lsl #11
  403ae8:	ea41 5155 	orr.w	r1, r1, r5, lsr #21
  403aec:	ea4f 20c5 	mov.w	r0, r5, lsl #11
  403af0:	ea40 505e 	orr.w	r0, r0, lr, lsr #21
  403af4:	ea4f 2ece 	mov.w	lr, lr, lsl #11
  403af8:	f1b4 0cfd 	subs.w	ip, r4, #253	; 0xfd
  403afc:	bf88      	it	hi
  403afe:	f5bc 6fe0 	cmphi.w	ip, #1792	; 0x700
  403b02:	d81e      	bhi.n	403b42 <__aeabi_dmul+0xde>
  403b04:	f1be 4f00 	cmp.w	lr, #2147483648	; 0x80000000
  403b08:	bf08      	it	eq
  403b0a:	ea5f 0e50 	movseq.w	lr, r0, lsr #1
  403b0e:	f150 0000 	adcs.w	r0, r0, #0
  403b12:	eb41 5104 	adc.w	r1, r1, r4, lsl #20
  403b16:	bd70      	pop	{r4, r5, r6, pc}
  403b18:	f006 4600 	and.w	r6, r6, #2147483648	; 0x80000000
  403b1c:	ea46 0101 	orr.w	r1, r6, r1
  403b20:	ea40 0002 	orr.w	r0, r0, r2
  403b24:	ea81 0103 	eor.w	r1, r1, r3
  403b28:	ebb4 045c 	subs.w	r4, r4, ip, lsr #1
  403b2c:	bfc2      	ittt	gt
  403b2e:	ebd4 050c 	rsbsgt	r5, r4, ip
  403b32:	ea41 5104 	orrgt.w	r1, r1, r4, lsl #20
  403b36:	bd70      	popgt	{r4, r5, r6, pc}
  403b38:	f441 1180 	orr.w	r1, r1, #1048576	; 0x100000
  403b3c:	f04f 0e00 	mov.w	lr, #0
  403b40:	3c01      	subs	r4, #1
  403b42:	f300 80ab 	bgt.w	403c9c <__aeabi_dmul+0x238>
  403b46:	f114 0f36 	cmn.w	r4, #54	; 0x36
  403b4a:	bfde      	ittt	le
  403b4c:	2000      	movle	r0, #0
  403b4e:	f001 4100 	andle.w	r1, r1, #2147483648	; 0x80000000
  403b52:	bd70      	pople	{r4, r5, r6, pc}
  403b54:	f1c4 0400 	rsb	r4, r4, #0
  403b58:	3c20      	subs	r4, #32
  403b5a:	da35      	bge.n	403bc8 <__aeabi_dmul+0x164>
  403b5c:	340c      	adds	r4, #12
  403b5e:	dc1b      	bgt.n	403b98 <__aeabi_dmul+0x134>
  403b60:	f104 0414 	add.w	r4, r4, #20
  403b64:	f1c4 0520 	rsb	r5, r4, #32
  403b68:	fa00 f305 	lsl.w	r3, r0, r5
  403b6c:	fa20 f004 	lsr.w	r0, r0, r4
  403b70:	fa01 f205 	lsl.w	r2, r1, r5
  403b74:	ea40 0002 	orr.w	r0, r0, r2
  403b78:	f001 4200 	and.w	r2, r1, #2147483648	; 0x80000000
  403b7c:	f021 4100 	bic.w	r1, r1, #2147483648	; 0x80000000
  403b80:	eb10 70d3 	adds.w	r0, r0, r3, lsr #31
  403b84:	fa21 f604 	lsr.w	r6, r1, r4
  403b88:	eb42 0106 	adc.w	r1, r2, r6
  403b8c:	ea5e 0e43 	orrs.w	lr, lr, r3, lsl #1
  403b90:	bf08      	it	eq
  403b92:	ea20 70d3 	biceq.w	r0, r0, r3, lsr #31
  403b96:	bd70      	pop	{r4, r5, r6, pc}
  403b98:	f1c4 040c 	rsb	r4, r4, #12
  403b9c:	f1c4 0520 	rsb	r5, r4, #32
  403ba0:	fa00 f304 	lsl.w	r3, r0, r4
  403ba4:	fa20 f005 	lsr.w	r0, r0, r5
  403ba8:	fa01 f204 	lsl.w	r2, r1, r4
  403bac:	ea40 0002 	orr.w	r0, r0, r2
  403bb0:	f001 4100 	and.w	r1, r1, #2147483648	; 0x80000000
  403bb4:	eb10 70d3 	adds.w	r0, r0, r3, lsr #31
  403bb8:	f141 0100 	adc.w	r1, r1, #0
  403bbc:	ea5e 0e43 	orrs.w	lr, lr, r3, lsl #1
  403bc0:	bf08      	it	eq
  403bc2:	ea20 70d3 	biceq.w	r0, r0, r3, lsr #31
  403bc6:	bd70      	pop	{r4, r5, r6, pc}
  403bc8:	f1c4 0520 	rsb	r5, r4, #32
  403bcc:	fa00 f205 	lsl.w	r2, r0, r5
  403bd0:	ea4e 0e02 	orr.w	lr, lr, r2
  403bd4:	fa20 f304 	lsr.w	r3, r0, r4
  403bd8:	fa01 f205 	lsl.w	r2, r1, r5
  403bdc:	ea43 0302 	orr.w	r3, r3, r2
  403be0:	fa21 f004 	lsr.w	r0, r1, r4
  403be4:	f001 4100 	and.w	r1, r1, #2147483648	; 0x80000000
  403be8:	fa21 f204 	lsr.w	r2, r1, r4
  403bec:	ea20 0002 	bic.w	r0, r0, r2
  403bf0:	eb00 70d3 	add.w	r0, r0, r3, lsr #31
  403bf4:	ea5e 0e43 	orrs.w	lr, lr, r3, lsl #1
  403bf8:	bf08      	it	eq
  403bfa:	ea20 70d3 	biceq.w	r0, r0, r3, lsr #31
  403bfe:	bd70      	pop	{r4, r5, r6, pc}
  403c00:	f094 0f00 	teq	r4, #0
  403c04:	d10f      	bne.n	403c26 <__aeabi_dmul+0x1c2>
  403c06:	f001 4600 	and.w	r6, r1, #2147483648	; 0x80000000
  403c0a:	0040      	lsls	r0, r0, #1
  403c0c:	eb41 0101 	adc.w	r1, r1, r1
  403c10:	f411 1f80 	tst.w	r1, #1048576	; 0x100000
  403c14:	bf08      	it	eq
  403c16:	3c01      	subeq	r4, #1
  403c18:	d0f7      	beq.n	403c0a <__aeabi_dmul+0x1a6>
  403c1a:	ea41 0106 	orr.w	r1, r1, r6
  403c1e:	f095 0f00 	teq	r5, #0
  403c22:	bf18      	it	ne
  403c24:	4770      	bxne	lr
  403c26:	f003 4600 	and.w	r6, r3, #2147483648	; 0x80000000
  403c2a:	0052      	lsls	r2, r2, #1
  403c2c:	eb43 0303 	adc.w	r3, r3, r3
  403c30:	f413 1f80 	tst.w	r3, #1048576	; 0x100000
  403c34:	bf08      	it	eq
  403c36:	3d01      	subeq	r5, #1
  403c38:	d0f7      	beq.n	403c2a <__aeabi_dmul+0x1c6>
  403c3a:	ea43 0306 	orr.w	r3, r3, r6
  403c3e:	4770      	bx	lr
  403c40:	ea94 0f0c 	teq	r4, ip
  403c44:	ea0c 5513 	and.w	r5, ip, r3, lsr #20
  403c48:	bf18      	it	ne
  403c4a:	ea95 0f0c 	teqne	r5, ip
  403c4e:	d00c      	beq.n	403c6a <__aeabi_dmul+0x206>
  403c50:	ea50 0641 	orrs.w	r6, r0, r1, lsl #1
  403c54:	bf18      	it	ne
  403c56:	ea52 0643 	orrsne.w	r6, r2, r3, lsl #1
  403c5a:	d1d1      	bne.n	403c00 <__aeabi_dmul+0x19c>
  403c5c:	ea81 0103 	eor.w	r1, r1, r3
  403c60:	f001 4100 	and.w	r1, r1, #2147483648	; 0x80000000
  403c64:	f04f 0000 	mov.w	r0, #0
  403c68:	bd70      	pop	{r4, r5, r6, pc}
  403c6a:	ea50 0641 	orrs.w	r6, r0, r1, lsl #1
  403c6e:	bf06      	itte	eq
  403c70:	4610      	moveq	r0, r2
  403c72:	4619      	moveq	r1, r3
  403c74:	ea52 0643 	orrsne.w	r6, r2, r3, lsl #1
  403c78:	d019      	beq.n	403cae <__aeabi_dmul+0x24a>
  403c7a:	ea94 0f0c 	teq	r4, ip
  403c7e:	d102      	bne.n	403c86 <__aeabi_dmul+0x222>
  403c80:	ea50 3601 	orrs.w	r6, r0, r1, lsl #12
  403c84:	d113      	bne.n	403cae <__aeabi_dmul+0x24a>
  403c86:	ea95 0f0c 	teq	r5, ip
  403c8a:	d105      	bne.n	403c98 <__aeabi_dmul+0x234>
  403c8c:	ea52 3603 	orrs.w	r6, r2, r3, lsl #12
  403c90:	bf1c      	itt	ne
  403c92:	4610      	movne	r0, r2
  403c94:	4619      	movne	r1, r3
  403c96:	d10a      	bne.n	403cae <__aeabi_dmul+0x24a>
  403c98:	ea81 0103 	eor.w	r1, r1, r3
  403c9c:	f001 4100 	and.w	r1, r1, #2147483648	; 0x80000000
  403ca0:	f041 41fe 	orr.w	r1, r1, #2130706432	; 0x7f000000
  403ca4:	f441 0170 	orr.w	r1, r1, #15728640	; 0xf00000
  403ca8:	f04f 0000 	mov.w	r0, #0
  403cac:	bd70      	pop	{r4, r5, r6, pc}
  403cae:	f041 41fe 	orr.w	r1, r1, #2130706432	; 0x7f000000
  403cb2:	f441 0178 	orr.w	r1, r1, #16252928	; 0xf80000
  403cb6:	bd70      	pop	{r4, r5, r6, pc}

00403cb8 <__aeabi_ddiv>:
  403cb8:	b570      	push	{r4, r5, r6, lr}
  403cba:	f04f 0cff 	mov.w	ip, #255	; 0xff
  403cbe:	f44c 6ce0 	orr.w	ip, ip, #1792	; 0x700
  403cc2:	ea1c 5411 	ands.w	r4, ip, r1, lsr #20
  403cc6:	bf1d      	ittte	ne
  403cc8:	ea1c 5513 	andsne.w	r5, ip, r3, lsr #20
  403ccc:	ea94 0f0c 	teqne	r4, ip
  403cd0:	ea95 0f0c 	teqne	r5, ip
  403cd4:	f000 f8a7 	bleq	403e26 <__aeabi_ddiv+0x16e>
  403cd8:	eba4 0405 	sub.w	r4, r4, r5
  403cdc:	ea81 0e03 	eor.w	lr, r1, r3
  403ce0:	ea52 3503 	orrs.w	r5, r2, r3, lsl #12
  403ce4:	ea4f 3101 	mov.w	r1, r1, lsl #12
  403ce8:	f000 8088 	beq.w	403dfc <__aeabi_ddiv+0x144>
  403cec:	ea4f 3303 	mov.w	r3, r3, lsl #12
  403cf0:	f04f 5580 	mov.w	r5, #268435456	; 0x10000000
  403cf4:	ea45 1313 	orr.w	r3, r5, r3, lsr #4
  403cf8:	ea43 6312 	orr.w	r3, r3, r2, lsr #24
  403cfc:	ea4f 2202 	mov.w	r2, r2, lsl #8
  403d00:	ea45 1511 	orr.w	r5, r5, r1, lsr #4
  403d04:	ea45 6510 	orr.w	r5, r5, r0, lsr #24
  403d08:	ea4f 2600 	mov.w	r6, r0, lsl #8
  403d0c:	f00e 4100 	and.w	r1, lr, #2147483648	; 0x80000000
  403d10:	429d      	cmp	r5, r3
  403d12:	bf08      	it	eq
  403d14:	4296      	cmpeq	r6, r2
  403d16:	f144 04fd 	adc.w	r4, r4, #253	; 0xfd
  403d1a:	f504 7440 	add.w	r4, r4, #768	; 0x300
  403d1e:	d202      	bcs.n	403d26 <__aeabi_ddiv+0x6e>
  403d20:	085b      	lsrs	r3, r3, #1
  403d22:	ea4f 0232 	mov.w	r2, r2, rrx
  403d26:	1ab6      	subs	r6, r6, r2
  403d28:	eb65 0503 	sbc.w	r5, r5, r3
  403d2c:	085b      	lsrs	r3, r3, #1
  403d2e:	ea4f 0232 	mov.w	r2, r2, rrx
  403d32:	f44f 1080 	mov.w	r0, #1048576	; 0x100000
  403d36:	f44f 2c00 	mov.w	ip, #524288	; 0x80000
  403d3a:	ebb6 0e02 	subs.w	lr, r6, r2
  403d3e:	eb75 0e03 	sbcs.w	lr, r5, r3
  403d42:	bf22      	ittt	cs
  403d44:	1ab6      	subcs	r6, r6, r2
  403d46:	4675      	movcs	r5, lr
  403d48:	ea40 000c 	orrcs.w	r0, r0, ip
  403d4c:	085b      	lsrs	r3, r3, #1
  403d4e:	ea4f 0232 	mov.w	r2, r2, rrx
  403d52:	ebb6 0e02 	subs.w	lr, r6, r2
  403d56:	eb75 0e03 	sbcs.w	lr, r5, r3
  403d5a:	bf22      	ittt	cs
  403d5c:	1ab6      	subcs	r6, r6, r2
  403d5e:	4675      	movcs	r5, lr
  403d60:	ea40 005c 	orrcs.w	r0, r0, ip, lsr #1
  403d64:	085b      	lsrs	r3, r3, #1
  403d66:	ea4f 0232 	mov.w	r2, r2, rrx
  403d6a:	ebb6 0e02 	subs.w	lr, r6, r2
  403d6e:	eb75 0e03 	sbcs.w	lr, r5, r3
  403d72:	bf22      	ittt	cs
  403d74:	1ab6      	subcs	r6, r6, r2
  403d76:	4675      	movcs	r5, lr
  403d78:	ea40 009c 	orrcs.w	r0, r0, ip, lsr #2
  403d7c:	085b      	lsrs	r3, r3, #1
  403d7e:	ea4f 0232 	mov.w	r2, r2, rrx
  403d82:	ebb6 0e02 	subs.w	lr, r6, r2
  403d86:	eb75 0e03 	sbcs.w	lr, r5, r3
  403d8a:	bf22      	ittt	cs
  403d8c:	1ab6      	subcs	r6, r6, r2
  403d8e:	4675      	movcs	r5, lr
  403d90:	ea40 00dc 	orrcs.w	r0, r0, ip, lsr #3
  403d94:	ea55 0e06 	orrs.w	lr, r5, r6
  403d98:	d018      	beq.n	403dcc <__aeabi_ddiv+0x114>
  403d9a:	ea4f 1505 	mov.w	r5, r5, lsl #4
  403d9e:	ea45 7516 	orr.w	r5, r5, r6, lsr #28
  403da2:	ea4f 1606 	mov.w	r6, r6, lsl #4
  403da6:	ea4f 03c3 	mov.w	r3, r3, lsl #3
  403daa:	ea43 7352 	orr.w	r3, r3, r2, lsr #29
  403dae:	ea4f 02c2 	mov.w	r2, r2, lsl #3
  403db2:	ea5f 1c1c 	movs.w	ip, ip, lsr #4
  403db6:	d1c0      	bne.n	403d3a <__aeabi_ddiv+0x82>
  403db8:	f411 1f80 	tst.w	r1, #1048576	; 0x100000
  403dbc:	d10b      	bne.n	403dd6 <__aeabi_ddiv+0x11e>
  403dbe:	ea41 0100 	orr.w	r1, r1, r0
  403dc2:	f04f 0000 	mov.w	r0, #0
  403dc6:	f04f 4c00 	mov.w	ip, #2147483648	; 0x80000000
  403dca:	e7b6      	b.n	403d3a <__aeabi_ddiv+0x82>
  403dcc:	f411 1f80 	tst.w	r1, #1048576	; 0x100000
  403dd0:	bf04      	itt	eq
  403dd2:	4301      	orreq	r1, r0
  403dd4:	2000      	moveq	r0, #0
  403dd6:	f1b4 0cfd 	subs.w	ip, r4, #253	; 0xfd
  403dda:	bf88      	it	hi
  403ddc:	f5bc 6fe0 	cmphi.w	ip, #1792	; 0x700
  403de0:	f63f aeaf 	bhi.w	403b42 <__aeabi_dmul+0xde>
  403de4:	ebb5 0c03 	subs.w	ip, r5, r3
  403de8:	bf04      	itt	eq
  403dea:	ebb6 0c02 	subseq.w	ip, r6, r2
  403dee:	ea5f 0c50 	movseq.w	ip, r0, lsr #1
  403df2:	f150 0000 	adcs.w	r0, r0, #0
  403df6:	eb41 5104 	adc.w	r1, r1, r4, lsl #20
  403dfa:	bd70      	pop	{r4, r5, r6, pc}
  403dfc:	f00e 4e00 	and.w	lr, lr, #2147483648	; 0x80000000
  403e00:	ea4e 3111 	orr.w	r1, lr, r1, lsr #12
  403e04:	eb14 045c 	adds.w	r4, r4, ip, lsr #1
  403e08:	bfc2      	ittt	gt
  403e0a:	ebd4 050c 	rsbsgt	r5, r4, ip
  403e0e:	ea41 5104 	orrgt.w	r1, r1, r4, lsl #20
  403e12:	bd70      	popgt	{r4, r5, r6, pc}
  403e14:	f441 1180 	orr.w	r1, r1, #1048576	; 0x100000
  403e18:	f04f 0e00 	mov.w	lr, #0
  403e1c:	3c01      	subs	r4, #1
  403e1e:	e690      	b.n	403b42 <__aeabi_dmul+0xde>
  403e20:	ea45 0e06 	orr.w	lr, r5, r6
  403e24:	e68d      	b.n	403b42 <__aeabi_dmul+0xde>
  403e26:	ea0c 5513 	and.w	r5, ip, r3, lsr #20
  403e2a:	ea94 0f0c 	teq	r4, ip
  403e2e:	bf08      	it	eq
  403e30:	ea95 0f0c 	teqeq	r5, ip
  403e34:	f43f af3b 	beq.w	403cae <__aeabi_dmul+0x24a>
  403e38:	ea94 0f0c 	teq	r4, ip
  403e3c:	d10a      	bne.n	403e54 <__aeabi_ddiv+0x19c>
  403e3e:	ea50 3401 	orrs.w	r4, r0, r1, lsl #12
  403e42:	f47f af34 	bne.w	403cae <__aeabi_dmul+0x24a>
  403e46:	ea95 0f0c 	teq	r5, ip
  403e4a:	f47f af25 	bne.w	403c98 <__aeabi_dmul+0x234>
  403e4e:	4610      	mov	r0, r2
  403e50:	4619      	mov	r1, r3
  403e52:	e72c      	b.n	403cae <__aeabi_dmul+0x24a>
  403e54:	ea95 0f0c 	teq	r5, ip
  403e58:	d106      	bne.n	403e68 <__aeabi_ddiv+0x1b0>
  403e5a:	ea52 3503 	orrs.w	r5, r2, r3, lsl #12
  403e5e:	f43f aefd 	beq.w	403c5c <__aeabi_dmul+0x1f8>
  403e62:	4610      	mov	r0, r2
  403e64:	4619      	mov	r1, r3
  403e66:	e722      	b.n	403cae <__aeabi_dmul+0x24a>
  403e68:	ea50 0641 	orrs.w	r6, r0, r1, lsl #1
  403e6c:	bf18      	it	ne
  403e6e:	ea52 0643 	orrsne.w	r6, r2, r3, lsl #1
  403e72:	f47f aec5 	bne.w	403c00 <__aeabi_dmul+0x19c>
  403e76:	ea50 0441 	orrs.w	r4, r0, r1, lsl #1
  403e7a:	f47f af0d 	bne.w	403c98 <__aeabi_dmul+0x234>
  403e7e:	ea52 0543 	orrs.w	r5, r2, r3, lsl #1
  403e82:	f47f aeeb 	bne.w	403c5c <__aeabi_dmul+0x1f8>
  403e86:	e712      	b.n	403cae <__aeabi_dmul+0x24a>

00403e88 <__gedf2>:
  403e88:	f04f 3cff 	mov.w	ip, #4294967295
  403e8c:	e006      	b.n	403e9c <__cmpdf2+0x4>
  403e8e:	bf00      	nop

00403e90 <__ledf2>:
  403e90:	f04f 0c01 	mov.w	ip, #1
  403e94:	e002      	b.n	403e9c <__cmpdf2+0x4>
  403e96:	bf00      	nop

00403e98 <__cmpdf2>:
  403e98:	f04f 0c01 	mov.w	ip, #1
  403e9c:	f84d cd04 	str.w	ip, [sp, #-4]!
  403ea0:	ea4f 0c41 	mov.w	ip, r1, lsl #1
  403ea4:	ea7f 5c6c 	mvns.w	ip, ip, asr #21
  403ea8:	ea4f 0c43 	mov.w	ip, r3, lsl #1
  403eac:	bf18      	it	ne
  403eae:	ea7f 5c6c 	mvnsne.w	ip, ip, asr #21
  403eb2:	d01b      	beq.n	403eec <__cmpdf2+0x54>
  403eb4:	b001      	add	sp, #4
  403eb6:	ea50 0c41 	orrs.w	ip, r0, r1, lsl #1
  403eba:	bf0c      	ite	eq
  403ebc:	ea52 0c43 	orrseq.w	ip, r2, r3, lsl #1
  403ec0:	ea91 0f03 	teqne	r1, r3
  403ec4:	bf02      	ittt	eq
  403ec6:	ea90 0f02 	teqeq	r0, r2
  403eca:	2000      	moveq	r0, #0
  403ecc:	4770      	bxeq	lr
  403ece:	f110 0f00 	cmn.w	r0, #0
  403ed2:	ea91 0f03 	teq	r1, r3
  403ed6:	bf58      	it	pl
  403ed8:	4299      	cmppl	r1, r3
  403eda:	bf08      	it	eq
  403edc:	4290      	cmpeq	r0, r2
  403ede:	bf2c      	ite	cs
  403ee0:	17d8      	asrcs	r0, r3, #31
  403ee2:	ea6f 70e3 	mvncc.w	r0, r3, asr #31
  403ee6:	f040 0001 	orr.w	r0, r0, #1
  403eea:	4770      	bx	lr
  403eec:	ea4f 0c41 	mov.w	ip, r1, lsl #1
  403ef0:	ea7f 5c6c 	mvns.w	ip, ip, asr #21
  403ef4:	d102      	bne.n	403efc <__cmpdf2+0x64>
  403ef6:	ea50 3c01 	orrs.w	ip, r0, r1, lsl #12
  403efa:	d107      	bne.n	403f0c <__cmpdf2+0x74>
  403efc:	ea4f 0c43 	mov.w	ip, r3, lsl #1
  403f00:	ea7f 5c6c 	mvns.w	ip, ip, asr #21
  403f04:	d1d6      	bne.n	403eb4 <__cmpdf2+0x1c>
  403f06:	ea52 3c03 	orrs.w	ip, r2, r3, lsl #12
  403f0a:	d0d3      	beq.n	403eb4 <__cmpdf2+0x1c>
  403f0c:	f85d 0b04 	ldr.w	r0, [sp], #4
  403f10:	4770      	bx	lr
  403f12:	bf00      	nop

00403f14 <__aeabi_cdrcmple>:
  403f14:	4684      	mov	ip, r0
  403f16:	4610      	mov	r0, r2
  403f18:	4662      	mov	r2, ip
  403f1a:	468c      	mov	ip, r1
  403f1c:	4619      	mov	r1, r3
  403f1e:	4663      	mov	r3, ip
  403f20:	e000      	b.n	403f24 <__aeabi_cdcmpeq>
  403f22:	bf00      	nop

00403f24 <__aeabi_cdcmpeq>:
  403f24:	b501      	push	{r0, lr}
  403f26:	f7ff ffb7 	bl	403e98 <__cmpdf2>
  403f2a:	2800      	cmp	r0, #0
  403f2c:	bf48      	it	mi
  403f2e:	f110 0f00 	cmnmi.w	r0, #0
  403f32:	bd01      	pop	{r0, pc}

00403f34 <__aeabi_dcmpeq>:
  403f34:	f84d ed08 	str.w	lr, [sp, #-8]!
  403f38:	f7ff fff4 	bl	403f24 <__aeabi_cdcmpeq>
  403f3c:	bf0c      	ite	eq
  403f3e:	2001      	moveq	r0, #1
  403f40:	2000      	movne	r0, #0
  403f42:	f85d fb08 	ldr.w	pc, [sp], #8
  403f46:	bf00      	nop

00403f48 <__aeabi_dcmplt>:
  403f48:	f84d ed08 	str.w	lr, [sp, #-8]!
  403f4c:	f7ff ffea 	bl	403f24 <__aeabi_cdcmpeq>
  403f50:	bf34      	ite	cc
  403f52:	2001      	movcc	r0, #1
  403f54:	2000      	movcs	r0, #0
  403f56:	f85d fb08 	ldr.w	pc, [sp], #8
  403f5a:	bf00      	nop

00403f5c <__aeabi_dcmple>:
  403f5c:	f84d ed08 	str.w	lr, [sp, #-8]!
  403f60:	f7ff ffe0 	bl	403f24 <__aeabi_cdcmpeq>
  403f64:	bf94      	ite	ls
  403f66:	2001      	movls	r0, #1
  403f68:	2000      	movhi	r0, #0
  403f6a:	f85d fb08 	ldr.w	pc, [sp], #8
  403f6e:	bf00      	nop

00403f70 <__aeabi_dcmpge>:
  403f70:	f84d ed08 	str.w	lr, [sp, #-8]!
  403f74:	f7ff ffce 	bl	403f14 <__aeabi_cdrcmple>
  403f78:	bf94      	ite	ls
  403f7a:	2001      	movls	r0, #1
  403f7c:	2000      	movhi	r0, #0
  403f7e:	f85d fb08 	ldr.w	pc, [sp], #8
  403f82:	bf00      	nop

00403f84 <__aeabi_dcmpgt>:
  403f84:	f84d ed08 	str.w	lr, [sp, #-8]!
  403f88:	f7ff ffc4 	bl	403f14 <__aeabi_cdrcmple>
  403f8c:	bf34      	ite	cc
  403f8e:	2001      	movcc	r0, #1
  403f90:	2000      	movcs	r0, #0
  403f92:	f85d fb08 	ldr.w	pc, [sp], #8
  403f96:	bf00      	nop

00403f98 <__aeabi_dcmpun>:
  403f98:	ea4f 0c41 	mov.w	ip, r1, lsl #1
  403f9c:	ea7f 5c6c 	mvns.w	ip, ip, asr #21
  403fa0:	d102      	bne.n	403fa8 <__aeabi_dcmpun+0x10>
  403fa2:	ea50 3c01 	orrs.w	ip, r0, r1, lsl #12
  403fa6:	d10a      	bne.n	403fbe <__aeabi_dcmpun+0x26>
  403fa8:	ea4f 0c43 	mov.w	ip, r3, lsl #1
  403fac:	ea7f 5c6c 	mvns.w	ip, ip, asr #21
  403fb0:	d102      	bne.n	403fb8 <__aeabi_dcmpun+0x20>
  403fb2:	ea52 3c03 	orrs.w	ip, r2, r3, lsl #12
  403fb6:	d102      	bne.n	403fbe <__aeabi_dcmpun+0x26>
  403fb8:	f04f 0000 	mov.w	r0, #0
  403fbc:	4770      	bx	lr
  403fbe:	f04f 0001 	mov.w	r0, #1
  403fc2:	4770      	bx	lr

00403fc4 <__aeabi_d2iz>:
  403fc4:	ea4f 0241 	mov.w	r2, r1, lsl #1
  403fc8:	f512 1200 	adds.w	r2, r2, #2097152	; 0x200000
  403fcc:	d215      	bcs.n	403ffa <__aeabi_d2iz+0x36>
  403fce:	d511      	bpl.n	403ff4 <__aeabi_d2iz+0x30>
  403fd0:	f46f 7378 	mvn.w	r3, #992	; 0x3e0
  403fd4:	ebb3 5262 	subs.w	r2, r3, r2, asr #21
  403fd8:	d912      	bls.n	404000 <__aeabi_d2iz+0x3c>
  403fda:	ea4f 23c1 	mov.w	r3, r1, lsl #11
  403fde:	f043 4300 	orr.w	r3, r3, #2147483648	; 0x80000000
  403fe2:	ea43 5350 	orr.w	r3, r3, r0, lsr #21
  403fe6:	f011 4f00 	tst.w	r1, #2147483648	; 0x80000000
  403fea:	fa23 f002 	lsr.w	r0, r3, r2
  403fee:	bf18      	it	ne
  403ff0:	4240      	negne	r0, r0
  403ff2:	4770      	bx	lr
  403ff4:	f04f 0000 	mov.w	r0, #0
  403ff8:	4770      	bx	lr
  403ffa:	ea50 3001 	orrs.w	r0, r0, r1, lsl #12
  403ffe:	d105      	bne.n	40400c <__aeabi_d2iz+0x48>
  404000:	f011 4000 	ands.w	r0, r1, #2147483648	; 0x80000000
  404004:	bf08      	it	eq
  404006:	f06f 4000 	mvneq.w	r0, #2147483648	; 0x80000000
  40400a:	4770      	bx	lr
  40400c:	f04f 0000 	mov.w	r0, #0
  404010:	4770      	bx	lr
  404012:	bf00      	nop

00404014 <__aeabi_d2uiz>:
  404014:	004a      	lsls	r2, r1, #1
  404016:	d211      	bcs.n	40403c <__aeabi_d2uiz+0x28>
  404018:	f512 1200 	adds.w	r2, r2, #2097152	; 0x200000
  40401c:	d211      	bcs.n	404042 <__aeabi_d2uiz+0x2e>
  40401e:	d50d      	bpl.n	40403c <__aeabi_d2uiz+0x28>
  404020:	f46f 7378 	mvn.w	r3, #992	; 0x3e0
  404024:	ebb3 5262 	subs.w	r2, r3, r2, asr #21
  404028:	d40e      	bmi.n	404048 <__aeabi_d2uiz+0x34>
  40402a:	ea4f 23c1 	mov.w	r3, r1, lsl #11
  40402e:	f043 4300 	orr.w	r3, r3, #2147483648	; 0x80000000
  404032:	ea43 5350 	orr.w	r3, r3, r0, lsr #21
  404036:	fa23 f002 	lsr.w	r0, r3, r2
  40403a:	4770      	bx	lr
  40403c:	f04f 0000 	mov.w	r0, #0
  404040:	4770      	bx	lr
  404042:	ea50 3001 	orrs.w	r0, r0, r1, lsl #12
  404046:	d102      	bne.n	40404e <__aeabi_d2uiz+0x3a>
  404048:	f04f 30ff 	mov.w	r0, #4294967295
  40404c:	4770      	bx	lr
  40404e:	f04f 0000 	mov.w	r0, #0
  404052:	4770      	bx	lr

00404054 <__aeabi_d2f>:
  404054:	ea4f 0241 	mov.w	r2, r1, lsl #1
  404058:	f1b2 43e0 	subs.w	r3, r2, #1879048192	; 0x70000000
  40405c:	bf24      	itt	cs
  40405e:	f5b3 1c00 	subscs.w	ip, r3, #2097152	; 0x200000
  404062:	f1dc 5cfe 	rsbscs	ip, ip, #532676608	; 0x1fc00000
  404066:	d90d      	bls.n	404084 <__aeabi_d2f+0x30>
  404068:	f001 4c00 	and.w	ip, r1, #2147483648	; 0x80000000
  40406c:	ea4f 02c0 	mov.w	r2, r0, lsl #3
  404070:	ea4c 7050 	orr.w	r0, ip, r0, lsr #29
  404074:	f1b2 4f00 	cmp.w	r2, #2147483648	; 0x80000000
  404078:	eb40 0083 	adc.w	r0, r0, r3, lsl #2
  40407c:	bf08      	it	eq
  40407e:	f020 0001 	biceq.w	r0, r0, #1
  404082:	4770      	bx	lr
  404084:	f011 4f80 	tst.w	r1, #1073741824	; 0x40000000
  404088:	d121      	bne.n	4040ce <__aeabi_d2f+0x7a>
  40408a:	f113 7238 	adds.w	r2, r3, #48234496	; 0x2e00000
  40408e:	bfbc      	itt	lt
  404090:	f001 4000 	andlt.w	r0, r1, #2147483648	; 0x80000000
  404094:	4770      	bxlt	lr
  404096:	f441 1180 	orr.w	r1, r1, #1048576	; 0x100000
  40409a:	ea4f 5252 	mov.w	r2, r2, lsr #21
  40409e:	f1c2 0218 	rsb	r2, r2, #24
  4040a2:	f1c2 0c20 	rsb	ip, r2, #32
  4040a6:	fa10 f30c 	lsls.w	r3, r0, ip
  4040aa:	fa20 f002 	lsr.w	r0, r0, r2
  4040ae:	bf18      	it	ne
  4040b0:	f040 0001 	orrne.w	r0, r0, #1
  4040b4:	ea4f 23c1 	mov.w	r3, r1, lsl #11
  4040b8:	ea4f 23d3 	mov.w	r3, r3, lsr #11
  4040bc:	fa03 fc0c 	lsl.w	ip, r3, ip
  4040c0:	ea40 000c 	orr.w	r0, r0, ip
  4040c4:	fa23 f302 	lsr.w	r3, r3, r2
  4040c8:	ea4f 0343 	mov.w	r3, r3, lsl #1
  4040cc:	e7cc      	b.n	404068 <__aeabi_d2f+0x14>
  4040ce:	ea7f 5362 	mvns.w	r3, r2, asr #21
  4040d2:	d107      	bne.n	4040e4 <__aeabi_d2f+0x90>
  4040d4:	ea50 3301 	orrs.w	r3, r0, r1, lsl #12
  4040d8:	bf1e      	ittt	ne
  4040da:	f04f 40fe 	movne.w	r0, #2130706432	; 0x7f000000
  4040de:	f440 0040 	orrne.w	r0, r0, #12582912	; 0xc00000
  4040e2:	4770      	bxne	lr
  4040e4:	f001 4000 	and.w	r0, r1, #2147483648	; 0x80000000
  4040e8:	f040 40fe 	orr.w	r0, r0, #2130706432	; 0x7f000000
  4040ec:	f440 0000 	orr.w	r0, r0, #8388608	; 0x800000
  4040f0:	4770      	bx	lr
  4040f2:	bf00      	nop

004040f4 <__gesf2>:
  4040f4:	f04f 3cff 	mov.w	ip, #4294967295
  4040f8:	e006      	b.n	404108 <__cmpsf2+0x4>
  4040fa:	bf00      	nop

004040fc <__lesf2>:
  4040fc:	f04f 0c01 	mov.w	ip, #1
  404100:	e002      	b.n	404108 <__cmpsf2+0x4>
  404102:	bf00      	nop

00404104 <__cmpsf2>:
  404104:	f04f 0c01 	mov.w	ip, #1
  404108:	f84d cd04 	str.w	ip, [sp, #-4]!
  40410c:	ea4f 0240 	mov.w	r2, r0, lsl #1
  404110:	ea4f 0341 	mov.w	r3, r1, lsl #1
  404114:	ea7f 6c22 	mvns.w	ip, r2, asr #24
  404118:	bf18      	it	ne
  40411a:	ea7f 6c23 	mvnsne.w	ip, r3, asr #24
  40411e:	d011      	beq.n	404144 <__cmpsf2+0x40>
  404120:	b001      	add	sp, #4
  404122:	ea52 0c53 	orrs.w	ip, r2, r3, lsr #1
  404126:	bf18      	it	ne
  404128:	ea90 0f01 	teqne	r0, r1
  40412c:	bf58      	it	pl
  40412e:	ebb2 0003 	subspl.w	r0, r2, r3
  404132:	bf88      	it	hi
  404134:	17c8      	asrhi	r0, r1, #31
  404136:	bf38      	it	cc
  404138:	ea6f 70e1 	mvncc.w	r0, r1, asr #31
  40413c:	bf18      	it	ne
  40413e:	f040 0001 	orrne.w	r0, r0, #1
  404142:	4770      	bx	lr
  404144:	ea7f 6c22 	mvns.w	ip, r2, asr #24
  404148:	d102      	bne.n	404150 <__cmpsf2+0x4c>
  40414a:	ea5f 2c40 	movs.w	ip, r0, lsl #9
  40414e:	d105      	bne.n	40415c <__cmpsf2+0x58>
  404150:	ea7f 6c23 	mvns.w	ip, r3, asr #24
  404154:	d1e4      	bne.n	404120 <__cmpsf2+0x1c>
  404156:	ea5f 2c41 	movs.w	ip, r1, lsl #9
  40415a:	d0e1      	beq.n	404120 <__cmpsf2+0x1c>
  40415c:	f85d 0b04 	ldr.w	r0, [sp], #4
  404160:	4770      	bx	lr
  404162:	bf00      	nop

00404164 <__aeabi_cfrcmple>:
  404164:	4684      	mov	ip, r0
  404166:	4608      	mov	r0, r1
  404168:	4661      	mov	r1, ip
  40416a:	e7ff      	b.n	40416c <__aeabi_cfcmpeq>

0040416c <__aeabi_cfcmpeq>:
  40416c:	b50f      	push	{r0, r1, r2, r3, lr}
  40416e:	f7ff ffc9 	bl	404104 <__cmpsf2>
  404172:	2800      	cmp	r0, #0
  404174:	bf48      	it	mi
  404176:	f110 0f00 	cmnmi.w	r0, #0
  40417a:	bd0f      	pop	{r0, r1, r2, r3, pc}

0040417c <__aeabi_fcmpeq>:
  40417c:	f84d ed08 	str.w	lr, [sp, #-8]!
  404180:	f7ff fff4 	bl	40416c <__aeabi_cfcmpeq>
  404184:	bf0c      	ite	eq
  404186:	2001      	moveq	r0, #1
  404188:	2000      	movne	r0, #0
  40418a:	f85d fb08 	ldr.w	pc, [sp], #8
  40418e:	bf00      	nop

00404190 <__aeabi_fcmplt>:
  404190:	f84d ed08 	str.w	lr, [sp, #-8]!
  404194:	f7ff ffea 	bl	40416c <__aeabi_cfcmpeq>
  404198:	bf34      	ite	cc
  40419a:	2001      	movcc	r0, #1
  40419c:	2000      	movcs	r0, #0
  40419e:	f85d fb08 	ldr.w	pc, [sp], #8
  4041a2:	bf00      	nop

004041a4 <__aeabi_fcmple>:
  4041a4:	f84d ed08 	str.w	lr, [sp, #-8]!
  4041a8:	f7ff ffe0 	bl	40416c <__aeabi_cfcmpeq>
  4041ac:	bf94      	ite	ls
  4041ae:	2001      	movls	r0, #1
  4041b0:	2000      	movhi	r0, #0
  4041b2:	f85d fb08 	ldr.w	pc, [sp], #8
  4041b6:	bf00      	nop

004041b8 <__aeabi_fcmpge>:
  4041b8:	f84d ed08 	str.w	lr, [sp, #-8]!
  4041bc:	f7ff ffd2 	bl	404164 <__aeabi_cfrcmple>
  4041c0:	bf94      	ite	ls
  4041c2:	2001      	movls	r0, #1
  4041c4:	2000      	movhi	r0, #0
  4041c6:	f85d fb08 	ldr.w	pc, [sp], #8
  4041ca:	bf00      	nop

004041cc <__aeabi_fcmpgt>:
  4041cc:	f84d ed08 	str.w	lr, [sp, #-8]!
  4041d0:	f7ff ffc8 	bl	404164 <__aeabi_cfrcmple>
  4041d4:	bf34      	ite	cc
  4041d6:	2001      	movcc	r0, #1
  4041d8:	2000      	movcs	r0, #0
  4041da:	f85d fb08 	ldr.w	pc, [sp], #8
  4041de:	bf00      	nop

004041e0 <__aeabi_fcmpun>:
  4041e0:	ea4f 0240 	mov.w	r2, r0, lsl #1
  4041e4:	ea4f 0341 	mov.w	r3, r1, lsl #1
  4041e8:	ea7f 6c22 	mvns.w	ip, r2, asr #24
  4041ec:	d102      	bne.n	4041f4 <__aeabi_fcmpun+0x14>
  4041ee:	ea5f 2c40 	movs.w	ip, r0, lsl #9
  4041f2:	d108      	bne.n	404206 <__aeabi_fcmpun+0x26>
  4041f4:	ea7f 6c23 	mvns.w	ip, r3, asr #24
  4041f8:	d102      	bne.n	404200 <__aeabi_fcmpun+0x20>
  4041fa:	ea5f 2c41 	movs.w	ip, r1, lsl #9
  4041fe:	d102      	bne.n	404206 <__aeabi_fcmpun+0x26>
  404200:	f04f 0000 	mov.w	r0, #0
  404204:	4770      	bx	lr
  404206:	f04f 0001 	mov.w	r0, #1
  40420a:	4770      	bx	lr

0040420c <_afecs>:
  40420c:	0000 0000 0700 2f84 0000 0305 ffff ffff     ......./........
  40421c:	ffff 0000 0000 0000 0000 0000 0000 0000     ................
  40422c:	010c 0000 0000 0000 0000 0000 0000 0000     ................
  40423c:	0000 0000 0200 0000 0200 0000 0200 0000     ................
  40424c:	0200 0000 0200 0000 0200 0000 0200 0000     ................
  40425c:	0200 0000 0200 0000 0200 0000 0200 0000     ................
  40426c:	0200 0000 0001 0000 0700 2f84 0000 0305     .........../....
  40427c:	ffff ffff ffff 0000 0000 0000 0000 0000     ................
  40428c:	0000 0000 010c 0000 0000 0000 0000 0000     ................
	...
  4042a4:	0200 0000 0200 0000 0200 0000 0200 0000     ................
  4042b4:	0200 0000 0200 0000 0200 0000 0200 0000     ................
  4042c4:	0200 0000 0200 0000 0200 0000 0200 0000     ................
  4042d4:	0100 0302 0504 0706 0c08 1410 2018 4030     ............. 0@

004042e4 <_uarts>:
  4042e4:	0001 0000 0800 0000 0051 0000 0002 0000     ........Q.......
  4042f4:	0800 0000 0051 0000                         ....Q...

004042fc <CSWTCH.36>:
  4042fc:	0807 2d2c 732e 0a0d 6e00 0066 6e69 7469     ..,-.s...nf.init
  40430c:	0079 6e61 0000 0000                         y.an....

00404314 <fpi.6129>:
  404314:	0035 0000 fbce ffff 03cb 0000 0001 0000     5...............
  404324:	0000 0000                                   ....

00404328 <fpinan.6165>:
  404328:	0034 0000 fbce ffff 03cb 0000 0001 0000     4...............
	...

00404340 <tinytens>:
  404340:	89bc 97d8 d2b2 3c9c a733 d5a8 f623 3949     .......<3...#.I9
  404350:	a73d 44f4 0ffd 32a5 979d cf8c ba08 255b     =..D...2......[%
  404360:	6f43 64ac 0628 1168                         Co.d(.h.

00404368 <__sf_fake_stderr>:
	...

00404388 <__sf_fake_stdin>:
	...

004043a8 <__sf_fake_stdout>:
	...
  4043c8:	0043 4f50 4953 0058 002e 0000 0000 0000     C.POSIX.........

004043d8 <__mprec_bigtens>:
  4043d8:	8000 37e0 c379 4341 6e17 b505 b8b5 4693     ...7y.AC.n.....F
  4043e8:	f9f5 e93f 4f03 4d38 1d32 f930 7748 5a82     ..?..O8M2.0.Hw.Z
  4043f8:	bf3c 7f73 4fdd 7515                         <.s..O.u

00404400 <__mprec_tens>:
  404400:	0000 0000 0000 3ff0 0000 0000 0000 4024     .......?......$@
  404410:	0000 0000 0000 4059 0000 0000 4000 408f     ......Y@.....@.@
  404420:	0000 0000 8800 40c3 0000 0000 6a00 40f8     .......@.....j.@
  404430:	0000 0000 8480 412e 0000 0000 12d0 4163     .......A......cA
  404440:	0000 0000 d784 4197 0000 0000 cd65 41cd     .......A....e..A
  404450:	0000 2000 a05f 4202 0000 e800 4876 4237     ... _..B....vH7B
  404460:	0000 a200 1a94 426d 0000 e540 309c 42a2     ......mB..@..0.B
  404470:	0000 1e90 bcc4 42d6 0000 2634 6bf5 430c     .......B..4&.k.C
  404480:	8000 37e0 c379 4341 a000 85d8 3457 4376     ...7y.AC....W4vC
  404490:	c800 674e c16d 43ab 3d00 6091 58e4 43e1     ..Ngm..C.=.`.X.C
  4044a0:	8c40 78b5 af1d 4415 ef50 d6e2 1ae4 444b     @..x...DP.....KD
  4044b0:	d592 064d f0cf 4480 4af6 c7e1 2d02 44b5     ..M....D.J...-.D
  4044c0:	9db4 79d9 7843 44ea                         ...yCx.D

004044c8 <p05.6047>:
  4044c8:	0005 0000 0019 0000 007d 0000               ........}...

004044d4 <_ctype_>:
  4044d4:	2000 2020 2020 2020 2020 2828 2828 2028     .         ((((( 
  4044e4:	2020 2020 2020 2020 2020 2020 2020 2020                     
  4044f4:	8820 1010 1010 1010 1010 1010 1010 1010      ...............
  404504:	0410 0404 0404 0404 0404 1004 1010 1010     ................
  404514:	1010 4141 4141 4141 0101 0101 0101 0101     ..AAAAAA........
  404524:	0101 0101 0101 0101 0101 0101 1010 1010     ................
  404534:	1010 4242 4242 4242 0202 0202 0202 0202     ..BBBBBB........
  404544:	0202 0202 0202 0202 0202 0202 1010 1010     ................
  404554:	0020 0000 0000 0000 0000 0000 0000 0000      ...............
	...

004045d8 <_init>:
  4045d8:	b5f8      	push	{r3, r4, r5, r6, r7, lr}
  4045da:	bf00      	nop
  4045dc:	bcf8      	pop	{r3, r4, r5, r6, r7}
  4045de:	bc08      	pop	{r3}
  4045e0:	469e      	mov	lr, r3
  4045e2:	4770      	bx	lr

004045e4 <__init_array_start>:
  4045e4:	0040018d 	.word	0x0040018d

004045e8 <_fini>:
  4045e8:	b5f8      	push	{r3, r4, r5, r6, r7, lr}
  4045ea:	bf00      	nop
  4045ec:	bcf8      	pop	{r3, r4, r5, r6, r7}
  4045ee:	bc08      	pop	{r3}
  4045f0:	469e      	mov	lr, r3
  4045f2:	4770      	bx	lr

004045f4 <__fini_array_start>:
  4045f4:	00400169 	.word	0x00400169
